Component: ARM Compiler 5.06 update 7 (build 960) Tool: armlink [4d3601]

==============================================================================

Section Cross References

    startup_stm32f103xe.o(RESET) refers to startup_stm32f103xe.o(STACK) for __initial_sp
    startup_stm32f103xe.o(RESET) refers to startup_stm32f103xe.o(.text) for Reset_Handler
    startup_stm32f103xe.o(RESET) refers to stm32f1xx_it.o(i.NMI_Handler) for NMI_Handler
    startup_stm32f103xe.o(RESET) refers to stm32f1xx_it.o(i.HardFault_Handler) for HardFault_Handler
    startup_stm32f103xe.o(RESET) refers to stm32f1xx_it.o(i.MemManage_Handler) for MemManage_Handler
    startup_stm32f103xe.o(RESET) refers to stm32f1xx_it.o(i.BusFault_Handler) for BusFault_Handler
    startup_stm32f103xe.o(RESET) refers to stm32f1xx_it.o(i.UsageFault_Handler) for UsageFault_Handler
    startup_stm32f103xe.o(RESET) refers to stm32f1xx_it.o(i.SVC_Handler) for SVC_Handler
    startup_stm32f103xe.o(RESET) refers to stm32f1xx_it.o(i.DebugMon_Handler) for DebugMon_Handler
    startup_stm32f103xe.o(RESET) refers to stm32f1xx_it.o(i.PendSV_Handler) for PendSV_Handler
    startup_stm32f103xe.o(RESET) refers to stm32f1xx_it.o(i.SysTick_Handler) for SysTick_Handler
    startup_stm32f103xe.o(.text) refers to system_stm32f1xx.o(i.SystemInit) for SystemInit
    startup_stm32f103xe.o(.text) refers to entry.o(.ARM.Collect$$$$00000000) for __main
    main.o(.ARM.exidx) refers to main.o(.rev16_text) for __asm___6_main_c_test_a____REV16
    main.o(.ARM.exidx) refers to main.o(.revsh_text) for __asm___6_main_c_test_a____REVSH
    main.o(.ARM.exidx) refers to main.o(.rrx_text) for __asm___6_main_c_test_a____RRX
    main.o(i.SystemClock_Config) refers to memseta.o(.text) for __aeabi_memclr4
    main.o(i.SystemClock_Config) refers to stm32f1xx_hal_rcc.o(i.HAL_RCC_OscConfig) for HAL_RCC_OscConfig
    main.o(i.SystemClock_Config) refers to main.o(i.Error_Handler) for Error_Handler
    main.o(i.SystemClock_Config) refers to stm32f1xx_hal_rcc.o(i.HAL_RCC_ClockConfig) for HAL_RCC_ClockConfig
    main.o(i.main) refers to stm32f1xx_hal.o(i.HAL_Init) for HAL_Init
    main.o(i.main) refers to main.o(i.SystemClock_Config) for SystemClock_Config
    main.o(i.main) refers to gpio.o(i.MX_GPIO_Init) for MX_GPIO_Init
    main.o(i.main) refers to usart.o(i.MX_USART1_UART_Init) for MX_USART1_UART_Init
    main.o(i.main) refers to unwind.o(i.show_unwind_info) for show_unwind_info
    main.o(i.main) refers to main.o(i.test_a) for test_a
    main.o(i.test_a) refers to main.o(i.test_b) for test_b
    main.o(i.test_b) refers to main.o(i.test_c) for test_c
    main.o(i.test_c) refers to unwind.o(i.back_trace) for back_trace
    main.o(.ARM.exidx) refers to main.o(i.test_c) for i.test_c
    main.o(.ARM.exidx) refers to unwind_pr0.o(.text) for __aeabi_unwind_cpp_pr0
    main.o(.ARM.exidx) refers to main.o(i.test_b) for i.test_b
    main.o(.ARM.exidx) refers to unwind_pr0.o(.text) for __aeabi_unwind_cpp_pr0
    main.o(.ARM.exidx) refers to main.o(i.test_a) for i.test_a
    main.o(.ARM.exidx) refers to unwind_pr0.o(.text) for __aeabi_unwind_cpp_pr0
    main.o(.ARM.exidx) refers to main.o(i.Error_Handler) for i.Error_Handler
    main.o(.ARM.exidx) refers to main.o(i.SystemClock_Config) for i.SystemClock_Config
    main.o(.ARM.exidx) refers to unwind_pr0.o(.text) for __aeabi_unwind_cpp_pr0
    main.o(.ARM.exidx) refers to main.o(i.main) for i.main
    main.o(.ARM.exidx) refers to unwind_pr0.o(.text) for __aeabi_unwind_cpp_pr0
    gpio.o(.ARM.exidx) refers to gpio.o(.rev16_text) for __asm___6_gpio_c_62724882____REV16
    gpio.o(.ARM.exidx) refers to gpio.o(.revsh_text) for __asm___6_gpio_c_62724882____REVSH
    gpio.o(.ARM.exidx) refers to gpio.o(.rrx_text) for __asm___6_gpio_c_62724882____RRX
    gpio.o(.ARM.exidx) refers to gpio.o(i.MX_GPIO_Init) for i.MX_GPIO_Init
    gpio.o(.ARM.exidx) refers to unwind_pr0.o(.text) for __aeabi_unwind_cpp_pr0
    usart.o(.ARM.exidx) refers to usart.o(.rev16_text) for __asm___7_usart_c_aa2567c7____REV16
    usart.o(.ARM.exidx) refers to usart.o(.revsh_text) for __asm___7_usart_c_aa2567c7____REVSH
    usart.o(.ARM.exidx) refers to usart.o(.rrx_text) for __asm___7_usart_c_aa2567c7____RRX
    usart.o(i.HAL_UART_MspDeInit) refers to stm32f1xx_hal_gpio.o(i.HAL_GPIO_DeInit) for HAL_GPIO_DeInit
    usart.o(i.HAL_UART_MspInit) refers to stm32f1xx_hal_gpio.o(i.HAL_GPIO_Init) for HAL_GPIO_Init
    usart.o(i.MX_USART1_UART_Init) refers to stm32f1xx_hal_uart.o(i.HAL_UART_Init) for HAL_UART_Init
    usart.o(i.MX_USART1_UART_Init) refers to main.o(i.Error_Handler) for Error_Handler
    usart.o(i.MX_USART1_UART_Init) refers to usart.o(.bss) for huart1
    usart.o(i.fputc) refers to stm32f1xx_hal_uart.o(i.HAL_UART_Transmit) for HAL_UART_Transmit
    usart.o(i.fputc) refers to usart.o(.bss) for huart1
    usart.o(.ARM.exidx) refers to usart.o(i.MX_USART1_UART_Init) for i.MX_USART1_UART_Init
    usart.o(.ARM.exidx) refers to unwind_pr0.o(.text) for __aeabi_unwind_cpp_pr0
    usart.o(.ARM.exidx) refers to usart.o(i.HAL_UART_MspInit) for i.HAL_UART_MspInit
    usart.o(.ARM.exidx) refers to unwind_pr0.o(.text) for __aeabi_unwind_cpp_pr0
    usart.o(.ARM.exidx) refers to usart.o(i.HAL_UART_MspDeInit) for i.HAL_UART_MspDeInit
    usart.o(.ARM.exidx) refers to unwind_pr0.o(.text) for __aeabi_unwind_cpp_pr0
    usart.o(.ARM.exidx) refers to usart.o(i.fputc) for i.fputc
    usart.o(.ARM.exidx) refers to unwind_pr0.o(.text) for __aeabi_unwind_cpp_pr0
    stm32f1xx_it.o(.ARM.exidx) refers to stm32f1xx_it.o(.rev16_text) for __asm___14_stm32f1xx_it_c_bb8ca80c____REV16
    stm32f1xx_it.o(.ARM.exidx) refers to stm32f1xx_it.o(.revsh_text) for __asm___14_stm32f1xx_it_c_bb8ca80c____REVSH
    stm32f1xx_it.o(.ARM.exidx) refers to stm32f1xx_it.o(.rrx_text) for __asm___14_stm32f1xx_it_c_bb8ca80c____RRX
    stm32f1xx_it.o(i.SysTick_Handler) refers to stm32f1xx_hal.o(i.HAL_IncTick) for HAL_IncTick
    stm32f1xx_it.o(.ARM.exidx) refers to stm32f1xx_it.o(i.NMI_Handler) for i.NMI_Handler
    stm32f1xx_it.o(.ARM.exidx) refers to stm32f1xx_it.o(i.HardFault_Handler) for i.HardFault_Handler
    stm32f1xx_it.o(.ARM.exidx) refers to stm32f1xx_it.o(i.MemManage_Handler) for i.MemManage_Handler
    stm32f1xx_it.o(.ARM.exidx) refers to stm32f1xx_it.o(i.BusFault_Handler) for i.BusFault_Handler
    stm32f1xx_it.o(.ARM.exidx) refers to stm32f1xx_it.o(i.UsageFault_Handler) for i.UsageFault_Handler
    stm32f1xx_it.o(.ARM.exidx) refers to stm32f1xx_it.o(i.SVC_Handler) for i.SVC_Handler
    stm32f1xx_it.o(.ARM.exidx) refers to stm32f1xx_it.o(i.DebugMon_Handler) for i.DebugMon_Handler
    stm32f1xx_it.o(.ARM.exidx) refers to stm32f1xx_it.o(i.PendSV_Handler) for i.PendSV_Handler
    stm32f1xx_it.o(.ARM.exidx) refers to stm32f1xx_it.o(i.SysTick_Handler) for i.SysTick_Handler
    stm32f1xx_it.o(.ARM.exidx) refers to unwind_pr0.o(.text) for __aeabi_unwind_cpp_pr0
    stm32f1xx_hal_msp.o(.ARM.exidx) refers to stm32f1xx_hal_msp.o(.rev16_text) for __asm___19_stm32f1xx_hal_msp_c_d46e2bee____REV16
    stm32f1xx_hal_msp.o(.ARM.exidx) refers to stm32f1xx_hal_msp.o(.revsh_text) for __asm___19_stm32f1xx_hal_msp_c_d46e2bee____REVSH
    stm32f1xx_hal_msp.o(.ARM.exidx) refers to stm32f1xx_hal_msp.o(.rrx_text) for __asm___19_stm32f1xx_hal_msp_c_d46e2bee____RRX
    stm32f1xx_hal_msp.o(.ARM.exidx) refers to stm32f1xx_hal_msp.o(i.HAL_MspInit) for i.HAL_MspInit
    stm32f1xx_hal_msp.o(.ARM.exidx) refers to unwind_pr0.o(.text) for __aeabi_unwind_cpp_pr0
    unwind.o(i.back_trace) refers to unwind.o(i.unwind_frame) for unwind_frame
    unwind.o(i.back_trace) refers to printf8.o(i.__0printf$8) for __2printf
    unwind.o(i.show_unwind_info) refers to printf8.o(i.__0printf$8) for __2printf
    unwind.o(i.show_unwind_info) refers to unwind.o(i.decode_prel31) for decode_prel31
    unwind.o(i.unwind_decode_uleb128) refers to unwind.o(i.unwind_get_byte) for unwind_get_byte
    unwind.o(i.unwind_exec_insn) refers to unwind.o(i.unwind_get_byte) for unwind_get_byte
    unwind.o(i.unwind_exec_insn) refers to printf8.o(i.__0printf$8) for __2printf
    unwind.o(i.unwind_exec_insn) refers to unwind.o(i.unwind_exec_pop_subset_r4_to_r13) for unwind_exec_pop_subset_r4_to_r13
    unwind.o(i.unwind_exec_insn) refers to unwind.o(i.unwind_exec_pop_r4_to_rN) for unwind_exec_pop_r4_to_rN
    unwind.o(i.unwind_exec_insn) refers to unwind.o(i.unwind_exec_pop_subset_r0_to_r3) for unwind_exec_pop_subset_r0_to_r3
    unwind.o(i.unwind_exec_insn) refers to unwind.o(i.unwind_decode_uleb128) for unwind_decode_uleb128
    unwind.o(i.unwind_exec_insn) refers to unwind.o(.constdata) for __func__
    unwind.o(i.unwind_exec_pop_r4_to_rN) refers to unwind.o(i.unwind_pop_register) for unwind_pop_register
    unwind.o(i.unwind_exec_pop_subset_r0_to_r3) refers to unwind.o(i.unwind_pop_register) for unwind_pop_register
    unwind.o(i.unwind_exec_pop_subset_r4_to_r13) refers to unwind.o(i.unwind_pop_register) for unwind_pop_register
    unwind.o(i.unwind_find_idx) refers to unwind.o(i.unwind_find_origin) for unwind_find_origin
    unwind.o(i.unwind_find_idx) refers to unwind.o(i.search_index) for search_index
    unwind.o(i.unwind_find_idx) refers to unwind.o(.data) for __origin_unwind_idx
    unwind.o(i.unwind_frame) refers to printf8.o(i.__0printf$8) for __2printf
    unwind.o(i.unwind_frame) refers to unwind.o(i.unwind_find_idx) for unwind_find_idx
    unwind.o(i.unwind_frame) refers to unwind.o(i.decode_prel31) for decode_prel31
    unwind.o(i.unwind_frame) refers to unwind.o(i.unwind_exec_insn) for unwind_exec_insn
    unwind.o(i.unwind_frame) refers to unwind.o(.conststring) for .conststring
    unwind.o(i.unwind_get_byte) refers to printf8.o(i.__0printf$8) for __2printf
    unwind.o(.ARM.exidx) refers to unwind.o(i.decode_prel31) for i.decode_prel31
    unwind.o(.ARM.exidx) refers to unwind.o(i.unwind_find_origin) for i.unwind_find_origin
    unwind.o(.ARM.exidx) refers to unwind.o(i.search_index) for i.search_index
    unwind.o(.ARM.exidx) refers to unwind_pr0.o(.text) for __aeabi_unwind_cpp_pr0
    unwind.o(.ARM.exidx) refers to unwind.o(i.unwind_find_idx) for i.unwind_find_idx
    unwind.o(.ARM.exidx) refers to unwind_pr0.o(.text) for __aeabi_unwind_cpp_pr0
    unwind.o(.ARM.exidx) refers to unwind.o(i.unwind_get_byte) for i.unwind_get_byte
    unwind.o(.ARM.exidx) refers to unwind_pr0.o(.text) for __aeabi_unwind_cpp_pr0
    unwind.o(.ARM.exidx) refers to unwind.o(i.unwind_pop_register) for i.unwind_pop_register
    unwind.o(.ARM.exidx) refers to unwind_pr0.o(.text) for __aeabi_unwind_cpp_pr0
    unwind.o(.ARM.exidx) refers to unwind.o(i.unwind_exec_pop_subset_r4_to_r13) for i.unwind_exec_pop_subset_r4_to_r13
    unwind.o(.ARM.exidx) refers to unwind_pr0.o(.text) for __aeabi_unwind_cpp_pr0
    unwind.o(.ARM.exidx) refers to unwind.o(i.unwind_exec_pop_r4_to_rN) for i.unwind_exec_pop_r4_to_rN
    unwind.o(.ARM.exidx) refers to unwind_pr0.o(.text) for __aeabi_unwind_cpp_pr0
    unwind.o(.ARM.exidx) refers to unwind.o(i.unwind_exec_pop_subset_r0_to_r3) for i.unwind_exec_pop_subset_r0_to_r3
    unwind.o(.ARM.exidx) refers to unwind_pr0.o(.text) for __aeabi_unwind_cpp_pr0
    unwind.o(.ARM.exidx) refers to unwind.o(i.unwind_decode_uleb128) for i.unwind_decode_uleb128
    unwind.o(.ARM.exidx) refers to unwind_pr0.o(.text) for __aeabi_unwind_cpp_pr0
    unwind.o(.ARM.exidx) refers to unwind.o(i.unwind_exec_insn) for i.unwind_exec_insn
    unwind.o(.ARM.exidx) refers to unwind_pr0.o(.text) for __aeabi_unwind_cpp_pr0
    unwind.o(.ARM.exidx) refers to unwind.o(i.unwind_frame) for i.unwind_frame
    unwind.o(.ARM.exidx) refers to unwind_pr0.o(.text) for __aeabi_unwind_cpp_pr0
    unwind.o(.ARM.exidx) refers to unwind.o(i.back_trace) for i.back_trace
    unwind.o(.ARM.exidx) refers to unwind_pr0.o(.text) for __aeabi_unwind_cpp_pr0
    unwind.o(.ARM.exidx) refers to unwind.o(i.show_unwind_info) for i.show_unwind_info
    unwind.o(.ARM.exidx) refers to unwind_pr0.o(.text) for __aeabi_unwind_cpp_pr0
    stm32f1xx_hal_gpio_ex.o(.ARM.exidx) refers to stm32f1xx_hal_gpio_ex.o(.rev16_text) for __asm___23_stm32f1xx_hal_gpio_ex_c_61b0f410____REV16
    stm32f1xx_hal_gpio_ex.o(.ARM.exidx) refers to stm32f1xx_hal_gpio_ex.o(.revsh_text) for __asm___23_stm32f1xx_hal_gpio_ex_c_61b0f410____REVSH
    stm32f1xx_hal_gpio_ex.o(.ARM.exidx) refers to stm32f1xx_hal_gpio_ex.o(.rrx_text) for __asm___23_stm32f1xx_hal_gpio_ex_c_61b0f410____RRX
    stm32f1xx_hal_gpio_ex.o(.ARM.exidx) refers to stm32f1xx_hal_gpio_ex.o(i.HAL_GPIOEx_ConfigEventout) for i.HAL_GPIOEx_ConfigEventout
    stm32f1xx_hal_gpio_ex.o(.ARM.exidx) refers to stm32f1xx_hal_gpio_ex.o(i.HAL_GPIOEx_EnableEventout) for i.HAL_GPIOEx_EnableEventout
    stm32f1xx_hal_gpio_ex.o(.ARM.exidx) refers to stm32f1xx_hal_gpio_ex.o(i.HAL_GPIOEx_DisableEventout) for i.HAL_GPIOEx_DisableEventout
    stm32f1xx_hal_tim.o(.ARM.exidx) refers to stm32f1xx_hal_tim.o(.rev16_text) for __asm___19_stm32f1xx_hal_tim_c____REV16
    stm32f1xx_hal_tim.o(.ARM.exidx) refers to stm32f1xx_hal_tim.o(.revsh_text) for __asm___19_stm32f1xx_hal_tim_c____REVSH
    stm32f1xx_hal_tim.o(.ARM.exidx) refers to stm32f1xx_hal_tim.o(.rrx_text) for __asm___19_stm32f1xx_hal_tim_c____RRX
    stm32f1xx_hal_tim_ex.o(.ARM.exidx) refers to stm32f1xx_hal_tim_ex.o(.rev16_text) for __asm___22_stm32f1xx_hal_tim_ex_c____REV16
    stm32f1xx_hal_tim_ex.o(.ARM.exidx) refers to stm32f1xx_hal_tim_ex.o(.revsh_text) for __asm___22_stm32f1xx_hal_tim_ex_c____REVSH
    stm32f1xx_hal_tim_ex.o(.ARM.exidx) refers to stm32f1xx_hal_tim_ex.o(.rrx_text) for __asm___22_stm32f1xx_hal_tim_ex_c____RRX
    stm32f1xx_hal_uart.o(.ARM.exidx) refers to stm32f1xx_hal_uart.o(.rev16_text) for __asm___20_stm32f1xx_hal_uart_c_d497114f____REV16
    stm32f1xx_hal_uart.o(.ARM.exidx) refers to stm32f1xx_hal_uart.o(.revsh_text) for __asm___20_stm32f1xx_hal_uart_c_d497114f____REVSH
    stm32f1xx_hal_uart.o(.ARM.exidx) refers to stm32f1xx_hal_uart.o(.rrx_text) for __asm___20_stm32f1xx_hal_uart_c_d497114f____RRX
    stm32f1xx_hal_uart.o(i.HAL_HalfDuplex_Init) refers to usart.o(i.HAL_UART_MspInit) for HAL_UART_MspInit
    stm32f1xx_hal_uart.o(i.HAL_HalfDuplex_Init) refers to stm32f1xx_hal_uart.o(i.UART_SetConfig) for UART_SetConfig
    stm32f1xx_hal_uart.o(i.HAL_LIN_Init) refers to usart.o(i.HAL_UART_MspInit) for HAL_UART_MspInit
    stm32f1xx_hal_uart.o(i.HAL_LIN_Init) refers to stm32f1xx_hal_uart.o(i.UART_SetConfig) for UART_SetConfig
    stm32f1xx_hal_uart.o(i.HAL_MultiProcessor_Init) refers to usart.o(i.HAL_UART_MspInit) for HAL_UART_MspInit
    stm32f1xx_hal_uart.o(i.HAL_MultiProcessor_Init) refers to stm32f1xx_hal_uart.o(i.UART_SetConfig) for UART_SetConfig
    stm32f1xx_hal_uart.o(i.HAL_UARTEx_ReceiveToIdle) refers to stm32f1xx_hal.o(i.HAL_GetTick) for HAL_GetTick
    stm32f1xx_hal_uart.o(i.HAL_UARTEx_ReceiveToIdle_DMA) refers to stm32f1xx_hal_uart.o(i.UART_Start_Receive_DMA) for UART_Start_Receive_DMA
    stm32f1xx_hal_uart.o(i.HAL_UARTEx_ReceiveToIdle_IT) refers to stm32f1xx_hal_uart.o(i.UART_Start_Receive_IT) for UART_Start_Receive_IT
    stm32f1xx_hal_uart.o(i.HAL_UART_Abort) refers to stm32f1xx_hal_dma.o(i.HAL_DMA_Abort) for HAL_DMA_Abort
    stm32f1xx_hal_uart.o(i.HAL_UART_Abort) refers to stm32f1xx_hal_dma.o(i.HAL_DMA_GetError) for HAL_DMA_GetError
    stm32f1xx_hal_uart.o(i.HAL_UART_AbortReceive) refers to stm32f1xx_hal_dma.o(i.HAL_DMA_Abort) for HAL_DMA_Abort
    stm32f1xx_hal_uart.o(i.HAL_UART_AbortReceive) refers to stm32f1xx_hal_dma.o(i.HAL_DMA_GetError) for HAL_DMA_GetError
    stm32f1xx_hal_uart.o(i.HAL_UART_AbortReceive_IT) refers to stm32f1xx_hal_dma.o(i.HAL_DMA_Abort_IT) for HAL_DMA_Abort_IT
    stm32f1xx_hal_uart.o(i.HAL_UART_AbortReceive_IT) refers to stm32f1xx_hal_uart.o(i.HAL_UART_AbortReceiveCpltCallback) for HAL_UART_AbortReceiveCpltCallback
    stm32f1xx_hal_uart.o(i.HAL_UART_AbortReceive_IT) refers to stm32f1xx_hal_uart.o(i.UART_DMARxOnlyAbortCallback) for UART_DMARxOnlyAbortCallback
    stm32f1xx_hal_uart.o(i.HAL_UART_AbortTransmit) refers to stm32f1xx_hal_dma.o(i.HAL_DMA_Abort) for HAL_DMA_Abort
    stm32f1xx_hal_uart.o(i.HAL_UART_AbortTransmit) refers to stm32f1xx_hal_dma.o(i.HAL_DMA_GetError) for HAL_DMA_GetError
    stm32f1xx_hal_uart.o(i.HAL_UART_AbortTransmit_IT) refers to stm32f1xx_hal_dma.o(i.HAL_DMA_Abort_IT) for HAL_DMA_Abort_IT
    stm32f1xx_hal_uart.o(i.HAL_UART_AbortTransmit_IT) refers to stm32f1xx_hal_uart.o(i.HAL_UART_AbortTransmitCpltCallback) for HAL_UART_AbortTransmitCpltCallback
    stm32f1xx_hal_uart.o(i.HAL_UART_AbortTransmit_IT) refers to stm32f1xx_hal_uart.o(i.UART_DMATxOnlyAbortCallback) for UART_DMATxOnlyAbortCallback
    stm32f1xx_hal_uart.o(i.HAL_UART_Abort_IT) refers to stm32f1xx_hal_dma.o(i.HAL_DMA_Abort_IT) for HAL_DMA_Abort_IT
    stm32f1xx_hal_uart.o(i.HAL_UART_Abort_IT) refers to stm32f1xx_hal_uart.o(i.HAL_UART_AbortCpltCallback) for HAL_UART_AbortCpltCallback
    stm32f1xx_hal_uart.o(i.HAL_UART_Abort_IT) refers to stm32f1xx_hal_uart.o(i.UART_DMATxAbortCallback) for UART_DMATxAbortCallback
    stm32f1xx_hal_uart.o(i.HAL_UART_Abort_IT) refers to stm32f1xx_hal_uart.o(i.UART_DMARxAbortCallback) for UART_DMARxAbortCallback
    stm32f1xx_hal_uart.o(i.HAL_UART_DMAStop) refers to stm32f1xx_hal_dma.o(i.HAL_DMA_Abort) for HAL_DMA_Abort
    stm32f1xx_hal_uart.o(i.HAL_UART_DMAStop) refers to stm32f1xx_hal_uart.o(i.UART_EndTxTransfer) for UART_EndTxTransfer
    stm32f1xx_hal_uart.o(i.HAL_UART_DMAStop) refers to stm32f1xx_hal_uart.o(i.UART_EndRxTransfer) for UART_EndRxTransfer
    stm32f1xx_hal_uart.o(i.HAL_UART_DeInit) refers to usart.o(i.HAL_UART_MspDeInit) for HAL_UART_MspDeInit
    stm32f1xx_hal_uart.o(i.HAL_UART_IRQHandler) refers to stm32f1xx_hal_uart.o(i.UART_Receive_IT) for UART_Receive_IT
    stm32f1xx_hal_uart.o(i.HAL_UART_IRQHandler) refers to stm32f1xx_hal_uart.o(i.UART_EndRxTransfer) for UART_EndRxTransfer
    stm32f1xx_hal_uart.o(i.HAL_UART_IRQHandler) refers to stm32f1xx_hal_dma.o(i.HAL_DMA_Abort_IT) for HAL_DMA_Abort_IT
    stm32f1xx_hal_uart.o(i.HAL_UART_IRQHandler) refers to stm32f1xx_hal_uart.o(i.HAL_UART_ErrorCallback) for HAL_UART_ErrorCallback
    stm32f1xx_hal_uart.o(i.HAL_UART_IRQHandler) refers to stm32f1xx_hal_dma.o(i.HAL_DMA_Abort) for HAL_DMA_Abort
    stm32f1xx_hal_uart.o(i.HAL_UART_IRQHandler) refers to stm32f1xx_hal_uart.o(i.HAL_UARTEx_RxEventCallback) for HAL_UARTEx_RxEventCallback
    stm32f1xx_hal_uart.o(i.HAL_UART_IRQHandler) refers to stm32f1xx_hal_uart.o(i.UART_Transmit_IT) for UART_Transmit_IT
    stm32f1xx_hal_uart.o(i.HAL_UART_IRQHandler) refers to stm32f1xx_hal_uart.o(i.UART_EndTransmit_IT) for UART_EndTransmit_IT
    stm32f1xx_hal_uart.o(i.HAL_UART_IRQHandler) refers to stm32f1xx_hal_uart.o(i.UART_DMAAbortOnError) for UART_DMAAbortOnError
    stm32f1xx_hal_uart.o(i.HAL_UART_Init) refers to usart.o(i.HAL_UART_MspInit) for HAL_UART_MspInit
    stm32f1xx_hal_uart.o(i.HAL_UART_Init) refers to stm32f1xx_hal_uart.o(i.UART_SetConfig) for UART_SetConfig
    stm32f1xx_hal_uart.o(i.HAL_UART_Receive) refers to stm32f1xx_hal.o(i.HAL_GetTick) for HAL_GetTick
    stm32f1xx_hal_uart.o(i.HAL_UART_Receive) refers to stm32f1xx_hal_uart.o(i.UART_WaitOnFlagUntilTimeout) for UART_WaitOnFlagUntilTimeout
    stm32f1xx_hal_uart.o(i.HAL_UART_Receive_DMA) refers to stm32f1xx_hal_uart.o(i.UART_Start_Receive_DMA) for UART_Start_Receive_DMA
    stm32f1xx_hal_uart.o(i.HAL_UART_Receive_IT) refers to stm32f1xx_hal_uart.o(i.UART_Start_Receive_IT) for UART_Start_Receive_IT
    stm32f1xx_hal_uart.o(i.HAL_UART_Transmit) refers to stm32f1xx_hal.o(i.HAL_GetTick) for HAL_GetTick
    stm32f1xx_hal_uart.o(i.HAL_UART_Transmit) refers to stm32f1xx_hal_uart.o(i.UART_WaitOnFlagUntilTimeout) for UART_WaitOnFlagUntilTimeout
    stm32f1xx_hal_uart.o(i.HAL_UART_Transmit_DMA) refers to stm32f1xx_hal_dma.o(i.HAL_DMA_Start_IT) for HAL_DMA_Start_IT
    stm32f1xx_hal_uart.o(i.HAL_UART_Transmit_DMA) refers to stm32f1xx_hal_uart.o(i.UART_DMATransmitCplt) for UART_DMATransmitCplt
    stm32f1xx_hal_uart.o(i.HAL_UART_Transmit_DMA) refers to stm32f1xx_hal_uart.o(i.UART_DMATxHalfCplt) for UART_DMATxHalfCplt
    stm32f1xx_hal_uart.o(i.HAL_UART_Transmit_DMA) refers to stm32f1xx_hal_uart.o(i.UART_DMAError) for UART_DMAError
    stm32f1xx_hal_uart.o(i.UART_DMAAbortOnError) refers to stm32f1xx_hal_uart.o(i.HAL_UART_ErrorCallback) for HAL_UART_ErrorCallback
    stm32f1xx_hal_uart.o(i.UART_DMAError) refers to stm32f1xx_hal_uart.o(i.UART_EndTxTransfer) for UART_EndTxTransfer
    stm32f1xx_hal_uart.o(i.UART_DMAError) refers to stm32f1xx_hal_uart.o(i.UART_EndRxTransfer) for UART_EndRxTransfer
    stm32f1xx_hal_uart.o(i.UART_DMAError) refers to stm32f1xx_hal_uart.o(i.HAL_UART_ErrorCallback) for HAL_UART_ErrorCallback
    stm32f1xx_hal_uart.o(i.UART_DMAReceiveCplt) refers to stm32f1xx_hal_uart.o(i.HAL_UARTEx_RxEventCallback) for HAL_UARTEx_RxEventCallback
    stm32f1xx_hal_uart.o(i.UART_DMAReceiveCplt) refers to stm32f1xx_hal_uart.o(i.HAL_UART_RxCpltCallback) for HAL_UART_RxCpltCallback
    stm32f1xx_hal_uart.o(i.UART_DMARxAbortCallback) refers to stm32f1xx_hal_uart.o(i.HAL_UART_AbortCpltCallback) for HAL_UART_AbortCpltCallback
    stm32f1xx_hal_uart.o(i.UART_DMARxHalfCplt) refers to stm32f1xx_hal_uart.o(i.HAL_UARTEx_RxEventCallback) for HAL_UARTEx_RxEventCallback
    stm32f1xx_hal_uart.o(i.UART_DMARxHalfCplt) refers to stm32f1xx_hal_uart.o(i.HAL_UART_RxHalfCpltCallback) for HAL_UART_RxHalfCpltCallback
    stm32f1xx_hal_uart.o(i.UART_DMARxOnlyAbortCallback) refers to stm32f1xx_hal_uart.o(i.HAL_UART_AbortReceiveCpltCallback) for HAL_UART_AbortReceiveCpltCallback
    stm32f1xx_hal_uart.o(i.UART_DMATransmitCplt) refers to stm32f1xx_hal_uart.o(i.HAL_UART_TxCpltCallback) for HAL_UART_TxCpltCallback
    stm32f1xx_hal_uart.o(i.UART_DMATxAbortCallback) refers to stm32f1xx_hal_uart.o(i.HAL_UART_AbortCpltCallback) for HAL_UART_AbortCpltCallback
    stm32f1xx_hal_uart.o(i.UART_DMATxHalfCplt) refers to stm32f1xx_hal_uart.o(i.HAL_UART_TxHalfCpltCallback) for HAL_UART_TxHalfCpltCallback
    stm32f1xx_hal_uart.o(i.UART_DMATxOnlyAbortCallback) refers to stm32f1xx_hal_uart.o(i.HAL_UART_AbortTransmitCpltCallback) for HAL_UART_AbortTransmitCpltCallback
    stm32f1xx_hal_uart.o(i.UART_EndTransmit_IT) refers to stm32f1xx_hal_uart.o(i.HAL_UART_TxCpltCallback) for HAL_UART_TxCpltCallback
    stm32f1xx_hal_uart.o(i.UART_Receive_IT) refers to stm32f1xx_hal_uart.o(i.HAL_UARTEx_RxEventCallback) for HAL_UARTEx_RxEventCallback
    stm32f1xx_hal_uart.o(i.UART_Receive_IT) refers to stm32f1xx_hal_uart.o(i.HAL_UART_RxCpltCallback) for HAL_UART_RxCpltCallback
    stm32f1xx_hal_uart.o(i.UART_SetConfig) refers to stm32f1xx_hal_rcc.o(i.HAL_RCC_GetPCLK2Freq) for HAL_RCC_GetPCLK2Freq
    stm32f1xx_hal_uart.o(i.UART_SetConfig) refers to stm32f1xx_hal_rcc.o(i.HAL_RCC_GetPCLK1Freq) for HAL_RCC_GetPCLK1Freq
    stm32f1xx_hal_uart.o(i.UART_Start_Receive_DMA) refers to stm32f1xx_hal_dma.o(i.HAL_DMA_Start_IT) for HAL_DMA_Start_IT
    stm32f1xx_hal_uart.o(i.UART_Start_Receive_DMA) refers to stm32f1xx_hal_uart.o(i.UART_DMAReceiveCplt) for UART_DMAReceiveCplt
    stm32f1xx_hal_uart.o(i.UART_Start_Receive_DMA) refers to stm32f1xx_hal_uart.o(i.UART_DMARxHalfCplt) for UART_DMARxHalfCplt
    stm32f1xx_hal_uart.o(i.UART_Start_Receive_DMA) refers to stm32f1xx_hal_uart.o(i.UART_DMAError) for UART_DMAError
    stm32f1xx_hal_uart.o(i.UART_WaitOnFlagUntilTimeout) refers to stm32f1xx_hal.o(i.HAL_GetTick) for HAL_GetTick
    stm32f1xx_hal_uart.o(i.UART_WaitOnFlagUntilTimeout) refers to stm32f1xx_hal_uart.o(i.UART_EndRxTransfer) for UART_EndRxTransfer
    stm32f1xx_hal_uart.o(.ARM.exidx) refers to stm32f1xx_hal_uart.o(i.UART_SetConfig) for i.UART_SetConfig
    stm32f1xx_hal_uart.o(.ARM.exidx) refers to unwind_pr0.o(.text) for __aeabi_unwind_cpp_pr0
    stm32f1xx_hal_uart.o(.ARM.exidx) refers to stm32f1xx_hal_uart.o(i.HAL_UART_MspInit) for i.HAL_UART_MspInit
    stm32f1xx_hal_uart.o(.ARM.exidx) refers to stm32f1xx_hal_uart.o(i.HAL_UART_Init) for i.HAL_UART_Init
    stm32f1xx_hal_uart.o(.ARM.exidx) refers to unwind_pr0.o(.text) for __aeabi_unwind_cpp_pr0
    stm32f1xx_hal_uart.o(.ARM.exidx) refers to stm32f1xx_hal_uart.o(i.HAL_HalfDuplex_Init) for i.HAL_HalfDuplex_Init
    stm32f1xx_hal_uart.o(.ARM.exidx) refers to unwind_pr0.o(.text) for __aeabi_unwind_cpp_pr0
    stm32f1xx_hal_uart.o(.ARM.exidx) refers to stm32f1xx_hal_uart.o(i.HAL_LIN_Init) for i.HAL_LIN_Init
    stm32f1xx_hal_uart.o(.ARM.exidx) refers to unwind_pr0.o(.text) for __aeabi_unwind_cpp_pr0
    stm32f1xx_hal_uart.o(.ARM.exidx) refers to stm32f1xx_hal_uart.o(i.HAL_MultiProcessor_Init) for i.HAL_MultiProcessor_Init
    stm32f1xx_hal_uart.o(.ARM.exidx) refers to unwind_pr0.o(.text) for __aeabi_unwind_cpp_pr0
    stm32f1xx_hal_uart.o(.ARM.exidx) refers to stm32f1xx_hal_uart.o(i.HAL_UART_MspDeInit) for i.HAL_UART_MspDeInit
    stm32f1xx_hal_uart.o(.ARM.exidx) refers to stm32f1xx_hal_uart.o(i.HAL_UART_DeInit) for i.HAL_UART_DeInit
    stm32f1xx_hal_uart.o(.ARM.exidx) refers to unwind_pr0.o(.text) for __aeabi_unwind_cpp_pr0
    stm32f1xx_hal_uart.o(.ARM.exidx) refers to stm32f1xx_hal_uart.o(i.UART_EndRxTransfer) for i.UART_EndRxTransfer
    stm32f1xx_hal_uart.o(.ARM.exidx) refers to stm32f1xx_hal_uart.o(i.UART_WaitOnFlagUntilTimeout) for i.UART_WaitOnFlagUntilTimeout
    stm32f1xx_hal_uart.o(.ARM.exidx) refers to unwind_pr0.o(.text) for __aeabi_unwind_cpp_pr0
    stm32f1xx_hal_uart.o(.ARM.exidx) refers to stm32f1xx_hal_uart.o(i.HAL_UART_Transmit) for i.HAL_UART_Transmit
    stm32f1xx_hal_uart.o(.ARM.exidx) refers to unwind_pr0.o(.text) for __aeabi_unwind_cpp_pr0
    stm32f1xx_hal_uart.o(.ARM.exidx) refers to stm32f1xx_hal_uart.o(i.HAL_UART_Receive) for i.HAL_UART_Receive
    stm32f1xx_hal_uart.o(.ARM.exidx) refers to unwind_pr0.o(.text) for __aeabi_unwind_cpp_pr0
    stm32f1xx_hal_uart.o(.ARM.exidx) refers to stm32f1xx_hal_uart.o(i.HAL_UART_Transmit_IT) for i.HAL_UART_Transmit_IT
    stm32f1xx_hal_uart.o(.ARM.exidx) refers to unwind_pr0.o(.text) for __aeabi_unwind_cpp_pr0
    stm32f1xx_hal_uart.o(.ARM.exidx) refers to stm32f1xx_hal_uart.o(i.UART_Start_Receive_IT) for i.UART_Start_Receive_IT
    stm32f1xx_hal_uart.o(.ARM.exidx) refers to unwind_pr0.o(.text) for __aeabi_unwind_cpp_pr0
    stm32f1xx_hal_uart.o(.ARM.exidx) refers to stm32f1xx_hal_uart.o(i.HAL_UART_Receive_IT) for i.HAL_UART_Receive_IT
    stm32f1xx_hal_uart.o(.ARM.exidx) refers to unwind_pr0.o(.text) for __aeabi_unwind_cpp_pr0
    stm32f1xx_hal_uart.o(.ARM.exidx) refers to stm32f1xx_hal_uart.o(i.HAL_UART_ErrorCallback) for i.HAL_UART_ErrorCallback
    stm32f1xx_hal_uart.o(.ARM.exidx) refers to stm32f1xx_hal_uart.o(i.UART_EndTxTransfer) for i.UART_EndTxTransfer
    stm32f1xx_hal_uart.o(.ARM.exidx) refers to stm32f1xx_hal_uart.o(i.UART_DMAError) for i.UART_DMAError
    stm32f1xx_hal_uart.o(.ARM.exidx) refers to unwind_pr0.o(.text) for __aeabi_unwind_cpp_pr0
    stm32f1xx_hal_uart.o(.ARM.exidx) refers to stm32f1xx_hal_uart.o(i.HAL_UART_TxHalfCpltCallback) for i.HAL_UART_TxHalfCpltCallback
    stm32f1xx_hal_uart.o(.ARM.exidx) refers to stm32f1xx_hal_uart.o(i.UART_DMATxHalfCplt) for i.UART_DMATxHalfCplt
    stm32f1xx_hal_uart.o(.ARM.exidx) refers to unwind_pr0.o(.text) for __aeabi_unwind_cpp_pr0
    stm32f1xx_hal_uart.o(.ARM.exidx) refers to stm32f1xx_hal_uart.o(i.HAL_UART_TxCpltCallback) for i.HAL_UART_TxCpltCallback
    stm32f1xx_hal_uart.o(.ARM.exidx) refers to stm32f1xx_hal_uart.o(i.UART_DMATransmitCplt) for i.UART_DMATransmitCplt
    stm32f1xx_hal_uart.o(.ARM.exidx) refers to unwind_pr0.o(.text) for __aeabi_unwind_cpp_pr0
    stm32f1xx_hal_uart.o(.ARM.exidx) refers to stm32f1xx_hal_uart.o(i.HAL_UART_Transmit_DMA) for i.HAL_UART_Transmit_DMA
    stm32f1xx_hal_uart.o(.ARM.exidx) refers to unwind_pr0.o(.text) for __aeabi_unwind_cpp_pr0
    stm32f1xx_hal_uart.o(.ARM.exidx) refers to stm32f1xx_hal_uart.o(i.HAL_UART_RxHalfCpltCallback) for i.HAL_UART_RxHalfCpltCallback
    stm32f1xx_hal_uart.o(.ARM.exidx) refers to stm32f1xx_hal_uart.o(i.HAL_UARTEx_RxEventCallback) for i.HAL_UARTEx_RxEventCallback
    stm32f1xx_hal_uart.o(.ARM.exidx) refers to stm32f1xx_hal_uart.o(i.UART_DMARxHalfCplt) for i.UART_DMARxHalfCplt
    stm32f1xx_hal_uart.o(.ARM.exidx) refers to unwind_pr0.o(.text) for __aeabi_unwind_cpp_pr0
    stm32f1xx_hal_uart.o(.ARM.exidx) refers to stm32f1xx_hal_uart.o(i.HAL_UART_RxCpltCallback) for i.HAL_UART_RxCpltCallback
    stm32f1xx_hal_uart.o(.ARM.exidx) refers to stm32f1xx_hal_uart.o(i.UART_DMAReceiveCplt) for i.UART_DMAReceiveCplt
    stm32f1xx_hal_uart.o(.ARM.exidx) refers to unwind_pr0.o(.text) for __aeabi_unwind_cpp_pr0
    stm32f1xx_hal_uart.o(.ARM.exidx) refers to stm32f1xx_hal_uart.o(i.UART_Start_Receive_DMA) for i.UART_Start_Receive_DMA
    stm32f1xx_hal_uart.o(.ARM.exidx) refers to unwind_pr0.o(.text) for __aeabi_unwind_cpp_pr0
    stm32f1xx_hal_uart.o(.ARM.exidx) refers to stm32f1xx_hal_uart.o(i.HAL_UART_Receive_DMA) for i.HAL_UART_Receive_DMA
    stm32f1xx_hal_uart.o(.ARM.exidx) refers to unwind_pr0.o(.text) for __aeabi_unwind_cpp_pr0
    stm32f1xx_hal_uart.o(.ARM.exidx) refers to stm32f1xx_hal_uart.o(i.HAL_UART_DMAPause) for i.HAL_UART_DMAPause
    stm32f1xx_hal_uart.o(.ARM.exidx) refers to unwind_pr0.o(.text) for __aeabi_unwind_cpp_pr0
    stm32f1xx_hal_uart.o(.ARM.exidx) refers to stm32f1xx_hal_uart.o(i.HAL_UART_DMAResume) for i.HAL_UART_DMAResume
    stm32f1xx_hal_uart.o(.ARM.exidx) refers to unwind_pr0.o(.text) for __aeabi_unwind_cpp_pr0
    stm32f1xx_hal_uart.o(.ARM.exidx) refers to stm32f1xx_hal_uart.o(i.HAL_UART_DMAStop) for i.HAL_UART_DMAStop
    stm32f1xx_hal_uart.o(.ARM.exidx) refers to unwind_pr0.o(.text) for __aeabi_unwind_cpp_pr0
    stm32f1xx_hal_uart.o(.ARM.exidx) refers to stm32f1xx_hal_uart.o(i.HAL_UARTEx_ReceiveToIdle) for i.HAL_UARTEx_ReceiveToIdle
    stm32f1xx_hal_uart.o(.ARM.exidx) refers to unwind_pr0.o(.text) for __aeabi_unwind_cpp_pr0
    stm32f1xx_hal_uart.o(.ARM.exidx) refers to stm32f1xx_hal_uart.o(i.HAL_UARTEx_ReceiveToIdle_IT) for i.HAL_UARTEx_ReceiveToIdle_IT
    stm32f1xx_hal_uart.o(.ARM.exidx) refers to unwind_pr0.o(.text) for __aeabi_unwind_cpp_pr0
    stm32f1xx_hal_uart.o(.ARM.exidx) refers to stm32f1xx_hal_uart.o(i.HAL_UARTEx_ReceiveToIdle_DMA) for i.HAL_UARTEx_ReceiveToIdle_DMA
    stm32f1xx_hal_uart.o(.ARM.exidx) refers to unwind_pr0.o(.text) for __aeabi_unwind_cpp_pr0
    stm32f1xx_hal_uart.o(.ARM.exidx) refers to stm32f1xx_hal_uart.o(i.HAL_UARTEx_GetRxEventType) for i.HAL_UARTEx_GetRxEventType
    stm32f1xx_hal_uart.o(.ARM.exidx) refers to stm32f1xx_hal_uart.o(i.HAL_UART_Abort) for i.HAL_UART_Abort
    stm32f1xx_hal_uart.o(.ARM.exidx) refers to unwind_pr0.o(.text) for __aeabi_unwind_cpp_pr0
    stm32f1xx_hal_uart.o(.ARM.exidx) refers to stm32f1xx_hal_uart.o(i.HAL_UART_AbortTransmit) for i.HAL_UART_AbortTransmit
    stm32f1xx_hal_uart.o(.ARM.exidx) refers to unwind_pr0.o(.text) for __aeabi_unwind_cpp_pr0
    stm32f1xx_hal_uart.o(.ARM.exidx) refers to stm32f1xx_hal_uart.o(i.HAL_UART_AbortReceive) for i.HAL_UART_AbortReceive
    stm32f1xx_hal_uart.o(.ARM.exidx) refers to unwind_pr0.o(.text) for __aeabi_unwind_cpp_pr0
    stm32f1xx_hal_uart.o(.ARM.exidx) refers to stm32f1xx_hal_uart.o(i.HAL_UART_AbortCpltCallback) for i.HAL_UART_AbortCpltCallback
    stm32f1xx_hal_uart.o(.ARM.exidx) refers to stm32f1xx_hal_uart.o(i.UART_DMARxAbortCallback) for i.UART_DMARxAbortCallback
    stm32f1xx_hal_uart.o(.ARM.exidx) refers to unwind_pr0.o(.text) for __aeabi_unwind_cpp_pr0
    stm32f1xx_hal_uart.o(.ARM.exidx) refers to stm32f1xx_hal_uart.o(i.UART_DMATxAbortCallback) for i.UART_DMATxAbortCallback
    stm32f1xx_hal_uart.o(.ARM.exidx) refers to unwind_pr0.o(.text) for __aeabi_unwind_cpp_pr0
    stm32f1xx_hal_uart.o(.ARM.exidx) refers to stm32f1xx_hal_uart.o(i.HAL_UART_Abort_IT) for i.HAL_UART_Abort_IT
    stm32f1xx_hal_uart.o(.ARM.exidx) refers to unwind_pr0.o(.text) for __aeabi_unwind_cpp_pr0
    stm32f1xx_hal_uart.o(.ARM.exidx) refers to stm32f1xx_hal_uart.o(i.HAL_UART_AbortTransmitCpltCallback) for i.HAL_UART_AbortTransmitCpltCallback
    stm32f1xx_hal_uart.o(.ARM.exidx) refers to stm32f1xx_hal_uart.o(i.UART_DMATxOnlyAbortCallback) for i.UART_DMATxOnlyAbortCallback
    stm32f1xx_hal_uart.o(.ARM.exidx) refers to unwind_pr0.o(.text) for __aeabi_unwind_cpp_pr0
    stm32f1xx_hal_uart.o(.ARM.exidx) refers to stm32f1xx_hal_uart.o(i.HAL_UART_AbortTransmit_IT) for i.HAL_UART_AbortTransmit_IT
    stm32f1xx_hal_uart.o(.ARM.exidx) refers to unwind_pr0.o(.text) for __aeabi_unwind_cpp_pr0
    stm32f1xx_hal_uart.o(.ARM.exidx) refers to stm32f1xx_hal_uart.o(i.HAL_UART_AbortReceiveCpltCallback) for i.HAL_UART_AbortReceiveCpltCallback
    stm32f1xx_hal_uart.o(.ARM.exidx) refers to stm32f1xx_hal_uart.o(i.UART_DMARxOnlyAbortCallback) for i.UART_DMARxOnlyAbortCallback
    stm32f1xx_hal_uart.o(.ARM.exidx) refers to unwind_pr0.o(.text) for __aeabi_unwind_cpp_pr0
    stm32f1xx_hal_uart.o(.ARM.exidx) refers to stm32f1xx_hal_uart.o(i.HAL_UART_AbortReceive_IT) for i.HAL_UART_AbortReceive_IT
    stm32f1xx_hal_uart.o(.ARM.exidx) refers to unwind_pr0.o(.text) for __aeabi_unwind_cpp_pr0
    stm32f1xx_hal_uart.o(.ARM.exidx) refers to stm32f1xx_hal_uart.o(i.UART_EndTransmit_IT) for i.UART_EndTransmit_IT
    stm32f1xx_hal_uart.o(.ARM.exidx) refers to unwind_pr0.o(.text) for __aeabi_unwind_cpp_pr0
    stm32f1xx_hal_uart.o(.ARM.exidx) refers to stm32f1xx_hal_uart.o(i.UART_Transmit_IT) for i.UART_Transmit_IT
    stm32f1xx_hal_uart.o(.ARM.exidx) refers to stm32f1xx_hal_uart.o(i.UART_DMAAbortOnError) for i.UART_DMAAbortOnError
    stm32f1xx_hal_uart.o(.ARM.exidx) refers to unwind_pr0.o(.text) for __aeabi_unwind_cpp_pr0
    stm32f1xx_hal_uart.o(.ARM.exidx) refers to stm32f1xx_hal_uart.o(i.UART_Receive_IT) for i.UART_Receive_IT
    stm32f1xx_hal_uart.o(.ARM.exidx) refers to unwind_pr0.o(.text) for __aeabi_unwind_cpp_pr0
    stm32f1xx_hal_uart.o(.ARM.exidx) refers to stm32f1xx_hal_uart.o(i.HAL_UART_IRQHandler) for i.HAL_UART_IRQHandler
    stm32f1xx_hal_uart.o(.ARM.exidx) refers to unwind_pr0.o(.text) for __aeabi_unwind_cpp_pr0
    stm32f1xx_hal_uart.o(.ARM.exidx) refers to stm32f1xx_hal_uart.o(i.HAL_LIN_SendBreak) for i.HAL_LIN_SendBreak
    stm32f1xx_hal_uart.o(.ARM.exidx) refers to stm32f1xx_hal_uart.o(i.HAL_MultiProcessor_EnterMuteMode) for i.HAL_MultiProcessor_EnterMuteMode
    stm32f1xx_hal_uart.o(.ARM.exidx) refers to stm32f1xx_hal_uart.o(i.HAL_MultiProcessor_ExitMuteMode) for i.HAL_MultiProcessor_ExitMuteMode
    stm32f1xx_hal_uart.o(.ARM.exidx) refers to stm32f1xx_hal_uart.o(i.HAL_HalfDuplex_EnableTransmitter) for i.HAL_HalfDuplex_EnableTransmitter
    stm32f1xx_hal_uart.o(.ARM.exidx) refers to stm32f1xx_hal_uart.o(i.HAL_HalfDuplex_EnableReceiver) for i.HAL_HalfDuplex_EnableReceiver
    stm32f1xx_hal_uart.o(.ARM.exidx) refers to stm32f1xx_hal_uart.o(i.HAL_UART_GetState) for i.HAL_UART_GetState
    stm32f1xx_hal_uart.o(.ARM.exidx) refers to stm32f1xx_hal_uart.o(i.HAL_UART_GetError) for i.HAL_UART_GetError
    stm32f1xx_hal.o(.ARM.exidx) refers to stm32f1xx_hal.o(.rev16_text) for __asm___15_stm32f1xx_hal_c_3da258af____REV16
    stm32f1xx_hal.o(.ARM.exidx) refers to stm32f1xx_hal.o(.revsh_text) for __asm___15_stm32f1xx_hal_c_3da258af____REVSH
    stm32f1xx_hal.o(.ARM.exidx) refers to stm32f1xx_hal.o(.rrx_text) for __asm___15_stm32f1xx_hal_c_3da258af____RRX
    stm32f1xx_hal.o(i.HAL_DeInit) refers to stm32f1xx_hal.o(i.HAL_MspDeInit) for HAL_MspDeInit
    stm32f1xx_hal.o(i.HAL_Delay) refers to stm32f1xx_hal.o(i.HAL_GetTick) for HAL_GetTick
    stm32f1xx_hal.o(i.HAL_Delay) refers to stm32f1xx_hal.o(.data) for uwTickFreq
    stm32f1xx_hal.o(i.HAL_GetTick) refers to stm32f1xx_hal.o(.data) for uwTick
    stm32f1xx_hal.o(i.HAL_GetTickFreq) refers to stm32f1xx_hal.o(.data) for uwTickFreq
    stm32f1xx_hal.o(i.HAL_GetTickPrio) refers to stm32f1xx_hal.o(.data) for uwTickPrio
    stm32f1xx_hal.o(i.HAL_IncTick) refers to stm32f1xx_hal.o(.data) for uwTick
    stm32f1xx_hal.o(i.HAL_Init) refers to stm32f1xx_hal_cortex.o(i.HAL_NVIC_SetPriorityGrouping) for HAL_NVIC_SetPriorityGrouping
    stm32f1xx_hal.o(i.HAL_Init) refers to stm32f1xx_hal.o(i.HAL_InitTick) for HAL_InitTick
    stm32f1xx_hal.o(i.HAL_Init) refers to stm32f1xx_hal_msp.o(i.HAL_MspInit) for HAL_MspInit
    stm32f1xx_hal.o(i.HAL_InitTick) refers to stm32f1xx_hal_cortex.o(i.HAL_SYSTICK_Config) for HAL_SYSTICK_Config
    stm32f1xx_hal.o(i.HAL_InitTick) refers to stm32f1xx_hal_cortex.o(i.HAL_NVIC_SetPriority) for HAL_NVIC_SetPriority
    stm32f1xx_hal.o(i.HAL_InitTick) refers to stm32f1xx_hal.o(.data) for uwTickFreq
    stm32f1xx_hal.o(i.HAL_InitTick) refers to system_stm32f1xx.o(.data) for SystemCoreClock
    stm32f1xx_hal.o(i.HAL_SetTickFreq) refers to stm32f1xx_hal.o(i.HAL_InitTick) for HAL_InitTick
    stm32f1xx_hal.o(i.HAL_SetTickFreq) refers to stm32f1xx_hal.o(.data) for uwTickFreq
    stm32f1xx_hal.o(.ARM.exidx) refers to stm32f1xx_hal.o(i.HAL_MspInit) for i.HAL_MspInit
    stm32f1xx_hal.o(.ARM.exidx) refers to stm32f1xx_hal.o(i.HAL_InitTick) for i.HAL_InitTick
    stm32f1xx_hal.o(.ARM.exidx) refers to unwind_pr0.o(.text) for __aeabi_unwind_cpp_pr0
    stm32f1xx_hal.o(.ARM.exidx) refers to stm32f1xx_hal.o(i.HAL_Init) for i.HAL_Init
    stm32f1xx_hal.o(.ARM.exidx) refers to unwind_pr0.o(.text) for __aeabi_unwind_cpp_pr0
    stm32f1xx_hal.o(.ARM.exidx) refers to stm32f1xx_hal.o(i.HAL_MspDeInit) for i.HAL_MspDeInit
    stm32f1xx_hal.o(.ARM.exidx) refers to stm32f1xx_hal.o(i.HAL_DeInit) for i.HAL_DeInit
    stm32f1xx_hal.o(.ARM.exidx) refers to unwind_pr0.o(.text) for __aeabi_unwind_cpp_pr0
    stm32f1xx_hal.o(.ARM.exidx) refers to stm32f1xx_hal.o(i.HAL_IncTick) for i.HAL_IncTick
    stm32f1xx_hal.o(.ARM.exidx) refers to stm32f1xx_hal.o(i.HAL_GetTick) for i.HAL_GetTick
    stm32f1xx_hal.o(.ARM.exidx) refers to stm32f1xx_hal.o(i.HAL_GetTickPrio) for i.HAL_GetTickPrio
    stm32f1xx_hal.o(.ARM.exidx) refers to stm32f1xx_hal.o(i.HAL_SetTickFreq) for i.HAL_SetTickFreq
    stm32f1xx_hal.o(.ARM.exidx) refers to unwind_pr0.o(.text) for __aeabi_unwind_cpp_pr0
    stm32f1xx_hal.o(.ARM.exidx) refers to stm32f1xx_hal.o(i.HAL_GetTickFreq) for i.HAL_GetTickFreq
    stm32f1xx_hal.o(.ARM.exidx) refers to stm32f1xx_hal.o(i.HAL_Delay) for i.HAL_Delay
    stm32f1xx_hal.o(.ARM.exidx) refers to unwind_pr0.o(.text) for __aeabi_unwind_cpp_pr0
    stm32f1xx_hal.o(.ARM.exidx) refers to stm32f1xx_hal.o(i.HAL_SuspendTick) for i.HAL_SuspendTick
    stm32f1xx_hal.o(.ARM.exidx) refers to stm32f1xx_hal.o(i.HAL_ResumeTick) for i.HAL_ResumeTick
    stm32f1xx_hal.o(.ARM.exidx) refers to stm32f1xx_hal.o(i.HAL_GetHalVersion) for i.HAL_GetHalVersion
    stm32f1xx_hal.o(.ARM.exidx) refers to stm32f1xx_hal.o(i.HAL_GetREVID) for i.HAL_GetREVID
    stm32f1xx_hal.o(.ARM.exidx) refers to stm32f1xx_hal.o(i.HAL_GetDEVID) for i.HAL_GetDEVID
    stm32f1xx_hal.o(.ARM.exidx) refers to stm32f1xx_hal.o(i.HAL_GetUIDw0) for i.HAL_GetUIDw0
    stm32f1xx_hal.o(.ARM.exidx) refers to stm32f1xx_hal.o(i.HAL_GetUIDw1) for i.HAL_GetUIDw1
    stm32f1xx_hal.o(.ARM.exidx) refers to stm32f1xx_hal.o(i.HAL_GetUIDw2) for i.HAL_GetUIDw2
    stm32f1xx_hal.o(.ARM.exidx) refers to stm32f1xx_hal.o(i.HAL_DBGMCU_EnableDBGSleepMode) for i.HAL_DBGMCU_EnableDBGSleepMode
    stm32f1xx_hal.o(.ARM.exidx) refers to stm32f1xx_hal.o(i.HAL_DBGMCU_DisableDBGSleepMode) for i.HAL_DBGMCU_DisableDBGSleepMode
    stm32f1xx_hal.o(.ARM.exidx) refers to stm32f1xx_hal.o(i.HAL_DBGMCU_EnableDBGStopMode) for i.HAL_DBGMCU_EnableDBGStopMode
    stm32f1xx_hal.o(.ARM.exidx) refers to stm32f1xx_hal.o(i.HAL_DBGMCU_DisableDBGStopMode) for i.HAL_DBGMCU_DisableDBGStopMode
    stm32f1xx_hal.o(.ARM.exidx) refers to stm32f1xx_hal.o(i.HAL_DBGMCU_EnableDBGStandbyMode) for i.HAL_DBGMCU_EnableDBGStandbyMode
    stm32f1xx_hal.o(.ARM.exidx) refers to stm32f1xx_hal.o(i.HAL_DBGMCU_DisableDBGStandbyMode) for i.HAL_DBGMCU_DisableDBGStandbyMode
    stm32f1xx_hal_rcc.o(.ARM.exidx) refers to stm32f1xx_hal_rcc.o(.rev16_text) for __asm___19_stm32f1xx_hal_rcc_c_b7071a4b____REV16
    stm32f1xx_hal_rcc.o(.ARM.exidx) refers to stm32f1xx_hal_rcc.o(.revsh_text) for __asm___19_stm32f1xx_hal_rcc_c_b7071a4b____REVSH
    stm32f1xx_hal_rcc.o(.ARM.exidx) refers to stm32f1xx_hal_rcc.o(.rrx_text) for __asm___19_stm32f1xx_hal_rcc_c_b7071a4b____RRX
    stm32f1xx_hal_rcc.o(i.HAL_RCC_ClockConfig) refers to stm32f1xx_hal.o(i.HAL_GetTick) for HAL_GetTick
    stm32f1xx_hal_rcc.o(i.HAL_RCC_ClockConfig) refers to stm32f1xx_hal_rcc.o(i.HAL_RCC_GetSysClockFreq) for HAL_RCC_GetSysClockFreq
    stm32f1xx_hal_rcc.o(i.HAL_RCC_ClockConfig) refers to stm32f1xx_hal.o(i.HAL_InitTick) for HAL_InitTick
    stm32f1xx_hal_rcc.o(i.HAL_RCC_ClockConfig) refers to system_stm32f1xx.o(.constdata) for AHBPrescTable
    stm32f1xx_hal_rcc.o(i.HAL_RCC_ClockConfig) refers to system_stm32f1xx.o(.data) for SystemCoreClock
    stm32f1xx_hal_rcc.o(i.HAL_RCC_ClockConfig) refers to stm32f1xx_hal.o(.data) for uwTickPrio
    stm32f1xx_hal_rcc.o(i.HAL_RCC_DeInit) refers to stm32f1xx_hal.o(i.HAL_GetTick) for HAL_GetTick
    stm32f1xx_hal_rcc.o(i.HAL_RCC_DeInit) refers to stm32f1xx_hal.o(i.HAL_InitTick) for HAL_InitTick
    stm32f1xx_hal_rcc.o(i.HAL_RCC_DeInit) refers to system_stm32f1xx.o(.data) for SystemCoreClock
    stm32f1xx_hal_rcc.o(i.HAL_RCC_DeInit) refers to stm32f1xx_hal.o(.data) for uwTickPrio
    stm32f1xx_hal_rcc.o(i.HAL_RCC_GetHCLKFreq) refers to system_stm32f1xx.o(.data) for SystemCoreClock
    stm32f1xx_hal_rcc.o(i.HAL_RCC_GetPCLK1Freq) refers to stm32f1xx_hal_rcc.o(i.HAL_RCC_GetHCLKFreq) for HAL_RCC_GetHCLKFreq
    stm32f1xx_hal_rcc.o(i.HAL_RCC_GetPCLK1Freq) refers to system_stm32f1xx.o(.constdata) for APBPrescTable
    stm32f1xx_hal_rcc.o(i.HAL_RCC_GetPCLK2Freq) refers to stm32f1xx_hal_rcc.o(i.HAL_RCC_GetHCLKFreq) for HAL_RCC_GetHCLKFreq
    stm32f1xx_hal_rcc.o(i.HAL_RCC_GetPCLK2Freq) refers to system_stm32f1xx.o(.constdata) for APBPrescTable
    stm32f1xx_hal_rcc.o(i.HAL_RCC_GetSysClockFreq) refers to stm32f1xx_hal_rcc.o(.constdata) for aPLLMULFactorTable
    stm32f1xx_hal_rcc.o(i.HAL_RCC_MCOConfig) refers to stm32f1xx_hal_gpio.o(i.HAL_GPIO_Init) for HAL_GPIO_Init
    stm32f1xx_hal_rcc.o(i.HAL_RCC_NMI_IRQHandler) refers to stm32f1xx_hal_rcc.o(i.HAL_RCC_CSSCallback) for HAL_RCC_CSSCallback
    stm32f1xx_hal_rcc.o(i.HAL_RCC_OscConfig) refers to stm32f1xx_hal.o(i.HAL_GetTick) for HAL_GetTick
    stm32f1xx_hal_rcc.o(i.HAL_RCC_OscConfig) refers to stm32f1xx_hal_rcc.o(i.RCC_Delay) for RCC_Delay
    stm32f1xx_hal_rcc.o(i.RCC_Delay) refers to system_stm32f1xx.o(.data) for SystemCoreClock
    stm32f1xx_hal_rcc.o(.ARM.exidx) refers to stm32f1xx_hal_rcc.o(i.HAL_RCC_DeInit) for i.HAL_RCC_DeInit
    stm32f1xx_hal_rcc.o(.ARM.exidx) refers to unwind_pr0.o(.text) for __aeabi_unwind_cpp_pr0
    stm32f1xx_hal_rcc.o(.ARM.exidx) refers to stm32f1xx_hal_rcc.o(i.RCC_Delay) for i.RCC_Delay
    stm32f1xx_hal_rcc.o(.ARM.exidx) refers to unwind_pr0.o(.text) for __aeabi_unwind_cpp_pr0
    stm32f1xx_hal_rcc.o(.ARM.exidx) refers to stm32f1xx_hal_rcc.o(i.HAL_RCC_OscConfig) for i.HAL_RCC_OscConfig
    stm32f1xx_hal_rcc.o(.ARM.exidx) refers to unwind_pr0.o(.text) for __aeabi_unwind_cpp_pr0
    stm32f1xx_hal_rcc.o(.ARM.exidx) refers to stm32f1xx_hal_rcc.o(i.HAL_RCC_GetSysClockFreq) for i.HAL_RCC_GetSysClockFreq
    stm32f1xx_hal_rcc.o(.ARM.exidx) refers to unwind_pr0.o(.text) for __aeabi_unwind_cpp_pr0
    stm32f1xx_hal_rcc.o(.ARM.exidx) refers to stm32f1xx_hal_rcc.o(i.HAL_RCC_ClockConfig) for i.HAL_RCC_ClockConfig
    stm32f1xx_hal_rcc.o(.ARM.exidx) refers to unwind_pr0.o(.text) for __aeabi_unwind_cpp_pr0
    stm32f1xx_hal_rcc.o(.ARM.exidx) refers to stm32f1xx_hal_rcc.o(i.HAL_RCC_MCOConfig) for i.HAL_RCC_MCOConfig
    stm32f1xx_hal_rcc.o(.ARM.exidx) refers to unwind_pr0.o(.text) for __aeabi_unwind_cpp_pr0
    stm32f1xx_hal_rcc.o(.ARM.exidx) refers to stm32f1xx_hal_rcc.o(i.HAL_RCC_EnableCSS) for i.HAL_RCC_EnableCSS
    stm32f1xx_hal_rcc.o(.ARM.exidx) refers to stm32f1xx_hal_rcc.o(i.HAL_RCC_DisableCSS) for i.HAL_RCC_DisableCSS
    stm32f1xx_hal_rcc.o(.ARM.exidx) refers to stm32f1xx_hal_rcc.o(i.HAL_RCC_GetHCLKFreq) for i.HAL_RCC_GetHCLKFreq
    stm32f1xx_hal_rcc.o(.ARM.exidx) refers to stm32f1xx_hal_rcc.o(i.HAL_RCC_GetPCLK1Freq) for i.HAL_RCC_GetPCLK1Freq
    stm32f1xx_hal_rcc.o(.ARM.exidx) refers to unwind_pr0.o(.text) for __aeabi_unwind_cpp_pr0
    stm32f1xx_hal_rcc.o(.ARM.exidx) refers to stm32f1xx_hal_rcc.o(i.HAL_RCC_GetPCLK2Freq) for i.HAL_RCC_GetPCLK2Freq
    stm32f1xx_hal_rcc.o(.ARM.exidx) refers to unwind_pr0.o(.text) for __aeabi_unwind_cpp_pr0
    stm32f1xx_hal_rcc.o(.ARM.exidx) refers to stm32f1xx_hal_rcc.o(i.HAL_RCC_GetOscConfig) for i.HAL_RCC_GetOscConfig
    stm32f1xx_hal_rcc.o(.ARM.exidx) refers to stm32f1xx_hal_rcc.o(i.HAL_RCC_GetClockConfig) for i.HAL_RCC_GetClockConfig
    stm32f1xx_hal_rcc.o(.ARM.exidx) refers to stm32f1xx_hal_rcc.o(i.HAL_RCC_CSSCallback) for i.HAL_RCC_CSSCallback
    stm32f1xx_hal_rcc.o(.ARM.exidx) refers to stm32f1xx_hal_rcc.o(i.HAL_RCC_NMI_IRQHandler) for i.HAL_RCC_NMI_IRQHandler
    stm32f1xx_hal_rcc.o(.ARM.exidx) refers to unwind_pr0.o(.text) for __aeabi_unwind_cpp_pr0
    stm32f1xx_hal_rcc_ex.o(.ARM.exidx) refers to stm32f1xx_hal_rcc_ex.o(.rev16_text) for __asm___22_stm32f1xx_hal_rcc_ex_c_bed13b44____REV16
    stm32f1xx_hal_rcc_ex.o(.ARM.exidx) refers to stm32f1xx_hal_rcc_ex.o(.revsh_text) for __asm___22_stm32f1xx_hal_rcc_ex_c_bed13b44____REVSH
    stm32f1xx_hal_rcc_ex.o(.ARM.exidx) refers to stm32f1xx_hal_rcc_ex.o(.rrx_text) for __asm___22_stm32f1xx_hal_rcc_ex_c_bed13b44____RRX
    stm32f1xx_hal_rcc_ex.o(i.HAL_RCCEx_GetPeriphCLKFreq) refers to stm32f1xx_hal_rcc.o(i.HAL_RCC_GetSysClockFreq) for HAL_RCC_GetSysClockFreq
    stm32f1xx_hal_rcc_ex.o(i.HAL_RCCEx_GetPeriphCLKFreq) refers to stm32f1xx_hal_rcc.o(i.HAL_RCC_GetPCLK2Freq) for HAL_RCC_GetPCLK2Freq
    stm32f1xx_hal_rcc_ex.o(i.HAL_RCCEx_GetPeriphCLKFreq) refers to stm32f1xx_hal_rcc_ex.o(.constdata) for aPLLMULFactorTable
    stm32f1xx_hal_rcc_ex.o(i.HAL_RCCEx_PeriphCLKConfig) refers to stm32f1xx_hal.o(i.HAL_GetTick) for HAL_GetTick
    stm32f1xx_hal_rcc_ex.o(.ARM.exidx) refers to stm32f1xx_hal_rcc_ex.o(i.HAL_RCCEx_PeriphCLKConfig) for i.HAL_RCCEx_PeriphCLKConfig
    stm32f1xx_hal_rcc_ex.o(.ARM.exidx) refers to unwind_pr0.o(.text) for __aeabi_unwind_cpp_pr0
    stm32f1xx_hal_rcc_ex.o(.ARM.exidx) refers to stm32f1xx_hal_rcc_ex.o(i.HAL_RCCEx_GetPeriphCLKConfig) for i.HAL_RCCEx_GetPeriphCLKConfig
    stm32f1xx_hal_rcc_ex.o(.ARM.exidx) refers to stm32f1xx_hal_rcc_ex.o(i.HAL_RCCEx_GetPeriphCLKFreq) for i.HAL_RCCEx_GetPeriphCLKFreq
    stm32f1xx_hal_rcc_ex.o(.ARM.exidx) refers to unwind_pr0.o(.text) for __aeabi_unwind_cpp_pr0
    stm32f1xx_hal_gpio.o(.ARM.exidx) refers to stm32f1xx_hal_gpio.o(.rev16_text) for __asm___20_stm32f1xx_hal_gpio_c_ea787061____REV16
    stm32f1xx_hal_gpio.o(.ARM.exidx) refers to stm32f1xx_hal_gpio.o(.revsh_text) for __asm___20_stm32f1xx_hal_gpio_c_ea787061____REVSH
    stm32f1xx_hal_gpio.o(.ARM.exidx) refers to stm32f1xx_hal_gpio.o(.rrx_text) for __asm___20_stm32f1xx_hal_gpio_c_ea787061____RRX
    stm32f1xx_hal_gpio.o(i.HAL_GPIO_EXTI_IRQHandler) refers to stm32f1xx_hal_gpio.o(i.HAL_GPIO_EXTI_Callback) for HAL_GPIO_EXTI_Callback
    stm32f1xx_hal_gpio.o(.ARM.exidx) refers to stm32f1xx_hal_gpio.o(i.HAL_GPIO_Init) for i.HAL_GPIO_Init
    stm32f1xx_hal_gpio.o(.ARM.exidx) refers to unwind_pr0.o(.text) for __aeabi_unwind_cpp_pr0
    stm32f1xx_hal_gpio.o(.ARM.exidx) refers to stm32f1xx_hal_gpio.o(i.HAL_GPIO_DeInit) for i.HAL_GPIO_DeInit
    stm32f1xx_hal_gpio.o(.ARM.exidx) refers to unwind_pr0.o(.text) for __aeabi_unwind_cpp_pr0
    stm32f1xx_hal_gpio.o(.ARM.exidx) refers to stm32f1xx_hal_gpio.o(i.HAL_GPIO_ReadPin) for i.HAL_GPIO_ReadPin
    stm32f1xx_hal_gpio.o(.ARM.exidx) refers to stm32f1xx_hal_gpio.o(i.HAL_GPIO_WritePin) for i.HAL_GPIO_WritePin
    stm32f1xx_hal_gpio.o(.ARM.exidx) refers to stm32f1xx_hal_gpio.o(i.HAL_GPIO_TogglePin) for i.HAL_GPIO_TogglePin
    stm32f1xx_hal_gpio.o(.ARM.exidx) refers to unwind_pr0.o(.text) for __aeabi_unwind_cpp_pr0
    stm32f1xx_hal_gpio.o(.ARM.exidx) refers to stm32f1xx_hal_gpio.o(i.HAL_GPIO_LockPin) for i.HAL_GPIO_LockPin
    stm32f1xx_hal_gpio.o(.ARM.exidx) refers to unwind_pr0.o(.text) for __aeabi_unwind_cpp_pr0
    stm32f1xx_hal_gpio.o(.ARM.exidx) refers to stm32f1xx_hal_gpio.o(i.HAL_GPIO_EXTI_Callback) for i.HAL_GPIO_EXTI_Callback
    stm32f1xx_hal_gpio.o(.ARM.exidx) refers to stm32f1xx_hal_gpio.o(i.HAL_GPIO_EXTI_IRQHandler) for i.HAL_GPIO_EXTI_IRQHandler
    stm32f1xx_hal_gpio.o(.ARM.exidx) refers to unwind_pr0.o(.text) for __aeabi_unwind_cpp_pr0
    stm32f1xx_hal_dma.o(.ARM.exidx) refers to stm32f1xx_hal_dma.o(.rev16_text) for __asm___19_stm32f1xx_hal_dma_c_c25f65ec____REV16
    stm32f1xx_hal_dma.o(.ARM.exidx) refers to stm32f1xx_hal_dma.o(.revsh_text) for __asm___19_stm32f1xx_hal_dma_c_c25f65ec____REVSH
    stm32f1xx_hal_dma.o(.ARM.exidx) refers to stm32f1xx_hal_dma.o(.rrx_text) for __asm___19_stm32f1xx_hal_dma_c_c25f65ec____RRX
    stm32f1xx_hal_dma.o(i.HAL_DMA_PollForTransfer) refers to stm32f1xx_hal.o(i.HAL_GetTick) for HAL_GetTick
    stm32f1xx_hal_dma.o(i.HAL_DMA_Start) refers to stm32f1xx_hal_dma.o(i.DMA_SetConfig) for DMA_SetConfig
    stm32f1xx_hal_dma.o(i.HAL_DMA_Start_IT) refers to stm32f1xx_hal_dma.o(i.DMA_SetConfig) for DMA_SetConfig
    stm32f1xx_hal_dma.o(.ARM.exidx) refers to stm32f1xx_hal_dma.o(i.HAL_DMA_Init) for i.HAL_DMA_Init
    stm32f1xx_hal_dma.o(.ARM.exidx) refers to stm32f1xx_hal_dma.o(i.HAL_DMA_DeInit) for i.HAL_DMA_DeInit
    stm32f1xx_hal_dma.o(.ARM.exidx) refers to stm32f1xx_hal_dma.o(i.DMA_SetConfig) for i.DMA_SetConfig
    stm32f1xx_hal_dma.o(.ARM.exidx) refers to unwind_pr0.o(.text) for __aeabi_unwind_cpp_pr0
    stm32f1xx_hal_dma.o(.ARM.exidx) refers to stm32f1xx_hal_dma.o(i.HAL_DMA_Start) for i.HAL_DMA_Start
    stm32f1xx_hal_dma.o(.ARM.exidx) refers to unwind_pr0.o(.text) for __aeabi_unwind_cpp_pr0
    stm32f1xx_hal_dma.o(.ARM.exidx) refers to stm32f1xx_hal_dma.o(i.HAL_DMA_Start_IT) for i.HAL_DMA_Start_IT
    stm32f1xx_hal_dma.o(.ARM.exidx) refers to unwind_pr0.o(.text) for __aeabi_unwind_cpp_pr0
    stm32f1xx_hal_dma.o(.ARM.exidx) refers to stm32f1xx_hal_dma.o(i.HAL_DMA_Abort) for i.HAL_DMA_Abort
    stm32f1xx_hal_dma.o(.ARM.exidx) refers to stm32f1xx_hal_dma.o(i.HAL_DMA_Abort_IT) for i.HAL_DMA_Abort_IT
    stm32f1xx_hal_dma.o(.ARM.exidx) refers to unwind_pr0.o(.text) for __aeabi_unwind_cpp_pr0
    stm32f1xx_hal_dma.o(.ARM.exidx) refers to stm32f1xx_hal_dma.o(i.HAL_DMA_PollForTransfer) for i.HAL_DMA_PollForTransfer
    stm32f1xx_hal_dma.o(.ARM.exidx) refers to unwind_pr0.o(.text) for __aeabi_unwind_cpp_pr0
    stm32f1xx_hal_dma.o(.ARM.exidx) refers to stm32f1xx_hal_dma.o(i.HAL_DMA_IRQHandler) for i.HAL_DMA_IRQHandler
    stm32f1xx_hal_dma.o(.ARM.exidx) refers to unwind_pr0.o(.text) for __aeabi_unwind_cpp_pr0
    stm32f1xx_hal_dma.o(.ARM.exidx) refers to stm32f1xx_hal_dma.o(i.HAL_DMA_RegisterCallback) for i.HAL_DMA_RegisterCallback
    stm32f1xx_hal_dma.o(.ARM.exidx) refers to unwind_pr0.o(.text) for __aeabi_unwind_cpp_pr0
    stm32f1xx_hal_dma.o(.ARM.exidx) refers to stm32f1xx_hal_dma.o(i.HAL_DMA_UnRegisterCallback) for i.HAL_DMA_UnRegisterCallback
    stm32f1xx_hal_dma.o(.ARM.exidx) refers to stm32f1xx_hal_dma.o(i.HAL_DMA_GetState) for i.HAL_DMA_GetState
    stm32f1xx_hal_dma.o(.ARM.exidx) refers to stm32f1xx_hal_dma.o(i.HAL_DMA_GetError) for i.HAL_DMA_GetError
    stm32f1xx_hal_cortex.o(.ARM.exidx) refers to stm32f1xx_hal_cortex.o(.rev16_text) for __asm___22_stm32f1xx_hal_cortex_c_2992dbc0____REV16
    stm32f1xx_hal_cortex.o(.ARM.exidx) refers to stm32f1xx_hal_cortex.o(.revsh_text) for __asm___22_stm32f1xx_hal_cortex_c_2992dbc0____REVSH
    stm32f1xx_hal_cortex.o(.ARM.exidx) refers to stm32f1xx_hal_cortex.o(.rrx_text) for __asm___22_stm32f1xx_hal_cortex_c_2992dbc0____RRX
    stm32f1xx_hal_cortex.o(i.HAL_NVIC_GetPriorityGrouping) refers to stm32f1xx_hal_cortex.o(i.__NVIC_GetPriorityGrouping) for __NVIC_GetPriorityGrouping
    stm32f1xx_hal_cortex.o(i.HAL_NVIC_SetPriority) refers to stm32f1xx_hal_cortex.o(i.__NVIC_GetPriorityGrouping) for __NVIC_GetPriorityGrouping
    stm32f1xx_hal_cortex.o(i.HAL_NVIC_SetPriority) refers to stm32f1xx_hal_cortex.o(i.__NVIC_SetPriority) for __NVIC_SetPriority
    stm32f1xx_hal_cortex.o(i.HAL_SYSTICK_Config) refers to stm32f1xx_hal_cortex.o(i.__NVIC_SetPriority) for __NVIC_SetPriority
    stm32f1xx_hal_cortex.o(i.HAL_SYSTICK_IRQHandler) refers to stm32f1xx_hal_cortex.o(i.HAL_SYSTICK_Callback) for HAL_SYSTICK_Callback
    stm32f1xx_hal_cortex.o(.ARM.exidx) refers to stm32f1xx_hal_cortex.o(i.__NVIC_SetPriority) for i.__NVIC_SetPriority
    stm32f1xx_hal_cortex.o(.ARM.exidx) refers to unwind_pr0.o(.text) for __aeabi_unwind_cpp_pr0
    stm32f1xx_hal_cortex.o(.ARM.exidx) refers to stm32f1xx_hal_cortex.o(i.HAL_NVIC_SetPriorityGrouping) for i.HAL_NVIC_SetPriorityGrouping
    stm32f1xx_hal_cortex.o(.ARM.exidx) refers to stm32f1xx_hal_cortex.o(i.HAL_NVIC_SetPriority) for i.HAL_NVIC_SetPriority
    stm32f1xx_hal_cortex.o(.ARM.exidx) refers to unwind_pr1.o(.text) for __aeabi_unwind_cpp_pr1
    stm32f1xx_hal_cortex.o(.ARM.exidx) refers to stm32f1xx_hal_cortex.o(.ARM.extab) for .extab.HAL_NVIC_SetPriority
    stm32f1xx_hal_cortex.o(.ARM.exidx) refers to stm32f1xx_hal_cortex.o(i.HAL_NVIC_EnableIRQ) for i.HAL_NVIC_EnableIRQ
    stm32f1xx_hal_cortex.o(.ARM.exidx) refers to stm32f1xx_hal_cortex.o(i.HAL_NVIC_DisableIRQ) for i.HAL_NVIC_DisableIRQ
    stm32f1xx_hal_cortex.o(.ARM.exidx) refers to unwind_pr0.o(.text) for __aeabi_unwind_cpp_pr0
    stm32f1xx_hal_cortex.o(.ARM.exidx) refers to stm32f1xx_hal_cortex.o(i.HAL_NVIC_SystemReset) for i.HAL_NVIC_SystemReset
    stm32f1xx_hal_cortex.o(.ARM.exidx) refers to stm32f1xx_hal_cortex.o(i.HAL_SYSTICK_Config) for i.HAL_SYSTICK_Config
    stm32f1xx_hal_cortex.o(.ARM.exidx) refers to unwind_pr0.o(.text) for __aeabi_unwind_cpp_pr0
    stm32f1xx_hal_cortex.o(.ARM.exidx) refers to stm32f1xx_hal_cortex.o(i.HAL_NVIC_GetPriorityGrouping) for i.HAL_NVIC_GetPriorityGrouping
    stm32f1xx_hal_cortex.o(.ARM.exidx) refers to unwind_pr0.o(.text) for __aeabi_unwind_cpp_pr0
    stm32f1xx_hal_cortex.o(.ARM.exidx) refers to stm32f1xx_hal_cortex.o(i.HAL_NVIC_GetPriority) for i.HAL_NVIC_GetPriority
    stm32f1xx_hal_cortex.o(.ARM.exidx) refers to unwind_pr0.o(.text) for __aeabi_unwind_cpp_pr0
    stm32f1xx_hal_cortex.o(.ARM.exidx) refers to stm32f1xx_hal_cortex.o(i.HAL_NVIC_SetPendingIRQ) for i.HAL_NVIC_SetPendingIRQ
    stm32f1xx_hal_cortex.o(.ARM.exidx) refers to unwind_pr0.o(.text) for __aeabi_unwind_cpp_pr0
    stm32f1xx_hal_cortex.o(.ARM.exidx) refers to stm32f1xx_hal_cortex.o(i.HAL_NVIC_GetPendingIRQ) for i.HAL_NVIC_GetPendingIRQ
    stm32f1xx_hal_cortex.o(.ARM.exidx) refers to unwind_pr0.o(.text) for __aeabi_unwind_cpp_pr0
    stm32f1xx_hal_cortex.o(.ARM.exidx) refers to stm32f1xx_hal_cortex.o(i.HAL_NVIC_ClearPendingIRQ) for i.HAL_NVIC_ClearPendingIRQ
    stm32f1xx_hal_cortex.o(.ARM.exidx) refers to unwind_pr0.o(.text) for __aeabi_unwind_cpp_pr0
    stm32f1xx_hal_cortex.o(.ARM.exidx) refers to stm32f1xx_hal_cortex.o(i.HAL_NVIC_GetActive) for i.HAL_NVIC_GetActive
    stm32f1xx_hal_cortex.o(.ARM.exidx) refers to unwind_pr0.o(.text) for __aeabi_unwind_cpp_pr0
    stm32f1xx_hal_cortex.o(.ARM.exidx) refers to stm32f1xx_hal_cortex.o(i.HAL_SYSTICK_CLKSourceConfig) for i.HAL_SYSTICK_CLKSourceConfig
    stm32f1xx_hal_cortex.o(.ARM.exidx) refers to stm32f1xx_hal_cortex.o(i.HAL_SYSTICK_Callback) for i.HAL_SYSTICK_Callback
    stm32f1xx_hal_cortex.o(.ARM.exidx) refers to stm32f1xx_hal_cortex.o(i.HAL_SYSTICK_IRQHandler) for i.HAL_SYSTICK_IRQHandler
    stm32f1xx_hal_cortex.o(.ARM.exidx) refers to unwind_pr0.o(.text) for __aeabi_unwind_cpp_pr0
    stm32f1xx_hal_cortex.o(.ARM.exidx) refers to stm32f1xx_hal_cortex.o(i.__NVIC_GetPriorityGrouping) for i.__NVIC_GetPriorityGrouping
    stm32f1xx_hal_pwr.o(.ARM.exidx) refers to stm32f1xx_hal_pwr.o(.rev16_text) for __asm___19_stm32f1xx_hal_pwr_c_f2cfe8be____REV16
    stm32f1xx_hal_pwr.o(.ARM.exidx) refers to stm32f1xx_hal_pwr.o(.revsh_text) for __asm___19_stm32f1xx_hal_pwr_c_f2cfe8be____REVSH
    stm32f1xx_hal_pwr.o(.ARM.exidx) refers to stm32f1xx_hal_pwr.o(.rrx_text) for __asm___19_stm32f1xx_hal_pwr_c_f2cfe8be____RRX
    stm32f1xx_hal_pwr.o(i.HAL_PWR_EnterSTOPMode) refers to stm32f1xx_hal_pwr.o(i.PWR_OverloadWfe) for PWR_OverloadWfe
    stm32f1xx_hal_pwr.o(i.HAL_PWR_PVD_IRQHandler) refers to stm32f1xx_hal_pwr.o(i.HAL_PWR_PVDCallback) for HAL_PWR_PVDCallback
    stm32f1xx_hal_pwr.o(.ARM.exidx) refers to stm32f1xx_hal_pwr.o(i.PWR_OverloadWfe) for i.PWR_OverloadWfe
    stm32f1xx_hal_pwr.o(.ARM.exidx) refers to stm32f1xx_hal_pwr.o(i.HAL_PWR_DeInit) for i.HAL_PWR_DeInit
    stm32f1xx_hal_pwr.o(.ARM.exidx) refers to stm32f1xx_hal_pwr.o(i.HAL_PWR_EnableBkUpAccess) for i.HAL_PWR_EnableBkUpAccess
    stm32f1xx_hal_pwr.o(.ARM.exidx) refers to stm32f1xx_hal_pwr.o(i.HAL_PWR_DisableBkUpAccess) for i.HAL_PWR_DisableBkUpAccess
    stm32f1xx_hal_pwr.o(.ARM.exidx) refers to stm32f1xx_hal_pwr.o(i.HAL_PWR_ConfigPVD) for i.HAL_PWR_ConfigPVD
    stm32f1xx_hal_pwr.o(.ARM.exidx) refers to stm32f1xx_hal_pwr.o(i.HAL_PWR_EnablePVD) for i.HAL_PWR_EnablePVD
    stm32f1xx_hal_pwr.o(.ARM.exidx) refers to stm32f1xx_hal_pwr.o(i.HAL_PWR_DisablePVD) for i.HAL_PWR_DisablePVD
    stm32f1xx_hal_pwr.o(.ARM.exidx) refers to stm32f1xx_hal_pwr.o(i.HAL_PWR_EnableWakeUpPin) for i.HAL_PWR_EnableWakeUpPin
    stm32f1xx_hal_pwr.o(.ARM.exidx) refers to stm32f1xx_hal_pwr.o(i.HAL_PWR_DisableWakeUpPin) for i.HAL_PWR_DisableWakeUpPin
    stm32f1xx_hal_pwr.o(.ARM.exidx) refers to stm32f1xx_hal_pwr.o(i.HAL_PWR_EnterSLEEPMode) for i.HAL_PWR_EnterSLEEPMode
    stm32f1xx_hal_pwr.o(.ARM.exidx) refers to stm32f1xx_hal_pwr.o(i.HAL_PWR_EnterSTOPMode) for i.HAL_PWR_EnterSTOPMode
    stm32f1xx_hal_pwr.o(.ARM.exidx) refers to unwind_pr0.o(.text) for __aeabi_unwind_cpp_pr0
    stm32f1xx_hal_pwr.o(.ARM.exidx) refers to stm32f1xx_hal_pwr.o(i.HAL_PWR_EnterSTANDBYMode) for i.HAL_PWR_EnterSTANDBYMode
    stm32f1xx_hal_pwr.o(.ARM.exidx) refers to stm32f1xx_hal_pwr.o(i.HAL_PWR_EnableSleepOnExit) for i.HAL_PWR_EnableSleepOnExit
    stm32f1xx_hal_pwr.o(.ARM.exidx) refers to stm32f1xx_hal_pwr.o(i.HAL_PWR_DisableSleepOnExit) for i.HAL_PWR_DisableSleepOnExit
    stm32f1xx_hal_pwr.o(.ARM.exidx) refers to stm32f1xx_hal_pwr.o(i.HAL_PWR_EnableSEVOnPend) for i.HAL_PWR_EnableSEVOnPend
    stm32f1xx_hal_pwr.o(.ARM.exidx) refers to stm32f1xx_hal_pwr.o(i.HAL_PWR_DisableSEVOnPend) for i.HAL_PWR_DisableSEVOnPend
    stm32f1xx_hal_pwr.o(.ARM.exidx) refers to stm32f1xx_hal_pwr.o(i.HAL_PWR_PVDCallback) for i.HAL_PWR_PVDCallback
    stm32f1xx_hal_pwr.o(.ARM.exidx) refers to stm32f1xx_hal_pwr.o(i.HAL_PWR_PVD_IRQHandler) for i.HAL_PWR_PVD_IRQHandler
    stm32f1xx_hal_pwr.o(.ARM.exidx) refers to unwind_pr0.o(.text) for __aeabi_unwind_cpp_pr0
    stm32f1xx_hal_flash.o(.ARM.exidx) refers to stm32f1xx_hal_flash.o(.rev16_text) for __asm___21_stm32f1xx_hal_flash_c_48aa8f3e____REV16
    stm32f1xx_hal_flash.o(.ARM.exidx) refers to stm32f1xx_hal_flash.o(.revsh_text) for __asm___21_stm32f1xx_hal_flash_c_48aa8f3e____REVSH
    stm32f1xx_hal_flash.o(.ARM.exidx) refers to stm32f1xx_hal_flash.o(.rrx_text) for __asm___21_stm32f1xx_hal_flash_c_48aa8f3e____RRX
    stm32f1xx_hal_flash.o(i.FLASH_Program_HalfWord) refers to stm32f1xx_hal_flash.o(.bss) for pFlash
    stm32f1xx_hal_flash.o(i.FLASH_SetErrorCode) refers to stm32f1xx_hal_flash.o(.bss) for pFlash
    stm32f1xx_hal_flash.o(i.FLASH_WaitForLastOperation) refers to stm32f1xx_hal.o(i.HAL_GetTick) for HAL_GetTick
    stm32f1xx_hal_flash.o(i.FLASH_WaitForLastOperation) refers to stm32f1xx_hal_flash.o(i.FLASH_SetErrorCode) for FLASH_SetErrorCode
    stm32f1xx_hal_flash.o(i.HAL_FLASH_GetError) refers to stm32f1xx_hal_flash.o(.bss) for pFlash
    stm32f1xx_hal_flash.o(i.HAL_FLASH_IRQHandler) refers to stm32f1xx_hal_flash.o(i.FLASH_SetErrorCode) for FLASH_SetErrorCode
    stm32f1xx_hal_flash.o(i.HAL_FLASH_IRQHandler) refers to stm32f1xx_hal_flash.o(i.HAL_FLASH_OperationErrorCallback) for HAL_FLASH_OperationErrorCallback
    stm32f1xx_hal_flash.o(i.HAL_FLASH_IRQHandler) refers to stm32f1xx_hal_flash.o(i.HAL_FLASH_EndOfOperationCallback) for HAL_FLASH_EndOfOperationCallback
    stm32f1xx_hal_flash.o(i.HAL_FLASH_IRQHandler) refers to stm32f1xx_hal_flash_ex.o(i.FLASH_PageErase) for FLASH_PageErase
    stm32f1xx_hal_flash.o(i.HAL_FLASH_IRQHandler) refers to stm32f1xx_hal_flash.o(i.FLASH_Program_HalfWord) for FLASH_Program_HalfWord
    stm32f1xx_hal_flash.o(i.HAL_FLASH_IRQHandler) refers to stm32f1xx_hal_flash.o(.bss) for pFlash
    stm32f1xx_hal_flash.o(i.HAL_FLASH_OB_Launch) refers to stm32f1xx_hal_cortex.o(i.HAL_NVIC_SystemReset) for HAL_NVIC_SystemReset
    stm32f1xx_hal_flash.o(i.HAL_FLASH_Program) refers to stm32f1xx_hal_flash.o(i.FLASH_WaitForLastOperation) for FLASH_WaitForLastOperation
    stm32f1xx_hal_flash.o(i.HAL_FLASH_Program) refers to llushr.o(.text) for __aeabi_llsr
    stm32f1xx_hal_flash.o(i.HAL_FLASH_Program) refers to stm32f1xx_hal_flash.o(i.FLASH_Program_HalfWord) for FLASH_Program_HalfWord
    stm32f1xx_hal_flash.o(i.HAL_FLASH_Program) refers to stm32f1xx_hal_flash.o(.bss) for pFlash
    stm32f1xx_hal_flash.o(i.HAL_FLASH_Program_IT) refers to stm32f1xx_hal_flash.o(i.FLASH_Program_HalfWord) for FLASH_Program_HalfWord
    stm32f1xx_hal_flash.o(i.HAL_FLASH_Program_IT) refers to stm32f1xx_hal_flash.o(.bss) for pFlash
    stm32f1xx_hal_flash.o(.ARM.exidx) refers to stm32f1xx_hal_flash.o(i.FLASH_SetErrorCode) for i.FLASH_SetErrorCode
    stm32f1xx_hal_flash.o(.ARM.exidx) refers to stm32f1xx_hal_flash.o(i.FLASH_WaitForLastOperation) for i.FLASH_WaitForLastOperation
    stm32f1xx_hal_flash.o(.ARM.exidx) refers to unwind_pr0.o(.text) for __aeabi_unwind_cpp_pr0
    stm32f1xx_hal_flash.o(.ARM.exidx) refers to stm32f1xx_hal_flash.o(i.FLASH_Program_HalfWord) for i.FLASH_Program_HalfWord
    stm32f1xx_hal_flash.o(.ARM.exidx) refers to stm32f1xx_hal_flash.o(i.HAL_FLASH_Program) for i.HAL_FLASH_Program
    stm32f1xx_hal_flash.o(.ARM.exidx) refers to unwind_pr0.o(.text) for __aeabi_unwind_cpp_pr0
    stm32f1xx_hal_flash.o(.ARM.exidx) refers to stm32f1xx_hal_flash.o(i.HAL_FLASH_Program_IT) for i.HAL_FLASH_Program_IT
    stm32f1xx_hal_flash.o(.ARM.exidx) refers to unwind_pr0.o(.text) for __aeabi_unwind_cpp_pr0
    stm32f1xx_hal_flash.o(.ARM.exidx) refers to stm32f1xx_hal_flash.o(i.HAL_FLASH_EndOfOperationCallback) for i.HAL_FLASH_EndOfOperationCallback
    stm32f1xx_hal_flash.o(.ARM.exidx) refers to stm32f1xx_hal_flash.o(i.HAL_FLASH_OperationErrorCallback) for i.HAL_FLASH_OperationErrorCallback
    stm32f1xx_hal_flash.o(.ARM.exidx) refers to stm32f1xx_hal_flash.o(i.HAL_FLASH_IRQHandler) for i.HAL_FLASH_IRQHandler
    stm32f1xx_hal_flash.o(.ARM.exidx) refers to unwind_pr0.o(.text) for __aeabi_unwind_cpp_pr0
    stm32f1xx_hal_flash.o(.ARM.exidx) refers to stm32f1xx_hal_flash.o(i.HAL_FLASH_Unlock) for i.HAL_FLASH_Unlock
    stm32f1xx_hal_flash.o(.ARM.exidx) refers to stm32f1xx_hal_flash.o(i.HAL_FLASH_Lock) for i.HAL_FLASH_Lock
    stm32f1xx_hal_flash.o(.ARM.exidx) refers to stm32f1xx_hal_flash.o(i.HAL_FLASH_OB_Unlock) for i.HAL_FLASH_OB_Unlock
    stm32f1xx_hal_flash.o(.ARM.exidx) refers to stm32f1xx_hal_flash.o(i.HAL_FLASH_OB_Lock) for i.HAL_FLASH_OB_Lock
    stm32f1xx_hal_flash.o(.ARM.exidx) refers to stm32f1xx_hal_flash.o(i.HAL_FLASH_OB_Launch) for i.HAL_FLASH_OB_Launch
    stm32f1xx_hal_flash.o(.ARM.exidx) refers to unwind_pr0.o(.text) for __aeabi_unwind_cpp_pr0
    stm32f1xx_hal_flash.o(.ARM.exidx) refers to stm32f1xx_hal_flash.o(i.HAL_FLASH_GetError) for i.HAL_FLASH_GetError
    stm32f1xx_hal_flash_ex.o(.ARM.exidx) refers to stm32f1xx_hal_flash_ex.o(.rev16_text) for __asm___24_stm32f1xx_hal_flash_ex_c_6648b60e____REV16
    stm32f1xx_hal_flash_ex.o(.ARM.exidx) refers to stm32f1xx_hal_flash_ex.o(.revsh_text) for __asm___24_stm32f1xx_hal_flash_ex_c_6648b60e____REVSH
    stm32f1xx_hal_flash_ex.o(.ARM.exidx) refers to stm32f1xx_hal_flash_ex.o(.rrx_text) for __asm___24_stm32f1xx_hal_flash_ex_c_6648b60e____RRX
    stm32f1xx_hal_flash_ex.o(i.FLASH_MassErase) refers to stm32f1xx_hal_flash.o(.bss) for pFlash
    stm32f1xx_hal_flash_ex.o(i.FLASH_OB_DisableWRP) refers to stm32f1xx_hal_flash_ex.o(i.FLASH_OB_GetWRP) for FLASH_OB_GetWRP
    stm32f1xx_hal_flash_ex.o(i.FLASH_OB_DisableWRP) refers to stm32f1xx_hal_flash.o(i.FLASH_WaitForLastOperation) for FLASH_WaitForLastOperation
    stm32f1xx_hal_flash_ex.o(i.FLASH_OB_DisableWRP) refers to stm32f1xx_hal_flash_ex.o(i.HAL_FLASHEx_OBErase) for HAL_FLASHEx_OBErase
    stm32f1xx_hal_flash_ex.o(i.FLASH_OB_DisableWRP) refers to stm32f1xx_hal_flash.o(.bss) for pFlash
    stm32f1xx_hal_flash_ex.o(i.FLASH_OB_EnableWRP) refers to stm32f1xx_hal_flash_ex.o(i.FLASH_OB_GetWRP) for FLASH_OB_GetWRP
    stm32f1xx_hal_flash_ex.o(i.FLASH_OB_EnableWRP) refers to stm32f1xx_hal_flash.o(i.FLASH_WaitForLastOperation) for FLASH_WaitForLastOperation
    stm32f1xx_hal_flash_ex.o(i.FLASH_OB_EnableWRP) refers to stm32f1xx_hal_flash_ex.o(i.HAL_FLASHEx_OBErase) for HAL_FLASHEx_OBErase
    stm32f1xx_hal_flash_ex.o(i.FLASH_OB_EnableWRP) refers to stm32f1xx_hal_flash.o(.bss) for pFlash
    stm32f1xx_hal_flash_ex.o(i.FLASH_OB_ProgramData) refers to stm32f1xx_hal_flash.o(i.FLASH_WaitForLastOperation) for FLASH_WaitForLastOperation
    stm32f1xx_hal_flash_ex.o(i.FLASH_OB_ProgramData) refers to stm32f1xx_hal_flash.o(.bss) for pFlash
    stm32f1xx_hal_flash_ex.o(i.FLASH_OB_RDP_LevelConfig) refers to stm32f1xx_hal_flash.o(i.FLASH_WaitForLastOperation) for FLASH_WaitForLastOperation
    stm32f1xx_hal_flash_ex.o(i.FLASH_OB_RDP_LevelConfig) refers to stm32f1xx_hal_flash.o(.bss) for pFlash
    stm32f1xx_hal_flash_ex.o(i.FLASH_OB_UserConfig) refers to stm32f1xx_hal_flash.o(i.FLASH_WaitForLastOperation) for FLASH_WaitForLastOperation
    stm32f1xx_hal_flash_ex.o(i.FLASH_OB_UserConfig) refers to stm32f1xx_hal_flash.o(.bss) for pFlash
    stm32f1xx_hal_flash_ex.o(i.FLASH_PageErase) refers to stm32f1xx_hal_flash.o(.bss) for pFlash
    stm32f1xx_hal_flash_ex.o(i.HAL_FLASHEx_Erase) refers to stm32f1xx_hal_flash.o(i.FLASH_WaitForLastOperation) for FLASH_WaitForLastOperation
    stm32f1xx_hal_flash_ex.o(i.HAL_FLASHEx_Erase) refers to stm32f1xx_hal_flash_ex.o(i.FLASH_MassErase) for FLASH_MassErase
    stm32f1xx_hal_flash_ex.o(i.HAL_FLASHEx_Erase) refers to stm32f1xx_hal_flash_ex.o(i.FLASH_PageErase) for FLASH_PageErase
    stm32f1xx_hal_flash_ex.o(i.HAL_FLASHEx_Erase) refers to stm32f1xx_hal_flash.o(.bss) for pFlash
    stm32f1xx_hal_flash_ex.o(i.HAL_FLASHEx_Erase_IT) refers to stm32f1xx_hal_flash_ex.o(i.FLASH_MassErase) for FLASH_MassErase
    stm32f1xx_hal_flash_ex.o(i.HAL_FLASHEx_Erase_IT) refers to stm32f1xx_hal_flash_ex.o(i.FLASH_PageErase) for FLASH_PageErase
    stm32f1xx_hal_flash_ex.o(i.HAL_FLASHEx_Erase_IT) refers to stm32f1xx_hal_flash.o(.bss) for pFlash
    stm32f1xx_hal_flash_ex.o(i.HAL_FLASHEx_OBErase) refers to stm32f1xx_hal_flash_ex.o(i.FLASH_OB_GetRDP) for FLASH_OB_GetRDP
    stm32f1xx_hal_flash_ex.o(i.HAL_FLASHEx_OBErase) refers to stm32f1xx_hal_flash.o(i.FLASH_WaitForLastOperation) for FLASH_WaitForLastOperation
    stm32f1xx_hal_flash_ex.o(i.HAL_FLASHEx_OBErase) refers to stm32f1xx_hal_flash_ex.o(i.FLASH_OB_RDP_LevelConfig) for FLASH_OB_RDP_LevelConfig
    stm32f1xx_hal_flash_ex.o(i.HAL_FLASHEx_OBErase) refers to stm32f1xx_hal_flash.o(.bss) for pFlash
    stm32f1xx_hal_flash_ex.o(i.HAL_FLASHEx_OBGetConfig) refers to stm32f1xx_hal_flash_ex.o(i.FLASH_OB_GetWRP) for FLASH_OB_GetWRP
    stm32f1xx_hal_flash_ex.o(i.HAL_FLASHEx_OBGetConfig) refers to stm32f1xx_hal_flash_ex.o(i.FLASH_OB_GetRDP) for FLASH_OB_GetRDP
    stm32f1xx_hal_flash_ex.o(i.HAL_FLASHEx_OBGetConfig) refers to stm32f1xx_hal_flash_ex.o(i.FLASH_OB_GetUser) for FLASH_OB_GetUser
    stm32f1xx_hal_flash_ex.o(i.HAL_FLASHEx_OBProgram) refers to stm32f1xx_hal_flash_ex.o(i.FLASH_OB_EnableWRP) for FLASH_OB_EnableWRP
    stm32f1xx_hal_flash_ex.o(i.HAL_FLASHEx_OBProgram) refers to stm32f1xx_hal_flash_ex.o(i.FLASH_OB_DisableWRP) for FLASH_OB_DisableWRP
    stm32f1xx_hal_flash_ex.o(i.HAL_FLASHEx_OBProgram) refers to stm32f1xx_hal_flash_ex.o(i.FLASH_OB_RDP_LevelConfig) for FLASH_OB_RDP_LevelConfig
    stm32f1xx_hal_flash_ex.o(i.HAL_FLASHEx_OBProgram) refers to stm32f1xx_hal_flash_ex.o(i.FLASH_OB_UserConfig) for FLASH_OB_UserConfig
    stm32f1xx_hal_flash_ex.o(i.HAL_FLASHEx_OBProgram) refers to stm32f1xx_hal_flash_ex.o(i.FLASH_OB_ProgramData) for FLASH_OB_ProgramData
    stm32f1xx_hal_flash_ex.o(i.HAL_FLASHEx_OBProgram) refers to stm32f1xx_hal_flash.o(.bss) for pFlash
    stm32f1xx_hal_flash_ex.o(.ARM.exidx) refers to stm32f1xx_hal_flash_ex.o(i.FLASH_PageErase) for i.FLASH_PageErase
    stm32f1xx_hal_flash_ex.o(.ARM.exidx) refers to stm32f1xx_hal_flash_ex.o(i.FLASH_MassErase) for i.FLASH_MassErase
    stm32f1xx_hal_flash_ex.o(.ARM.exidx) refers to stm32f1xx_hal_flash_ex.o(i.HAL_FLASHEx_Erase) for i.HAL_FLASHEx_Erase
    stm32f1xx_hal_flash_ex.o(.ARM.exidx) refers to unwind_pr0.o(.text) for __aeabi_unwind_cpp_pr0
    stm32f1xx_hal_flash_ex.o(.ARM.exidx) refers to stm32f1xx_hal_flash_ex.o(i.HAL_FLASHEx_Erase_IT) for i.HAL_FLASHEx_Erase_IT
    stm32f1xx_hal_flash_ex.o(.ARM.exidx) refers to unwind_pr0.o(.text) for __aeabi_unwind_cpp_pr0
    stm32f1xx_hal_flash_ex.o(.ARM.exidx) refers to stm32f1xx_hal_flash_ex.o(i.FLASH_OB_RDP_LevelConfig) for i.FLASH_OB_RDP_LevelConfig
    stm32f1xx_hal_flash_ex.o(.ARM.exidx) refers to unwind_pr0.o(.text) for __aeabi_unwind_cpp_pr0
    stm32f1xx_hal_flash_ex.o(.ARM.exidx) refers to stm32f1xx_hal_flash_ex.o(i.FLASH_OB_GetRDP) for i.FLASH_OB_GetRDP
    stm32f1xx_hal_flash_ex.o(.ARM.exidx) refers to stm32f1xx_hal_flash_ex.o(i.HAL_FLASHEx_OBErase) for i.HAL_FLASHEx_OBErase
    stm32f1xx_hal_flash_ex.o(.ARM.exidx) refers to unwind_pr0.o(.text) for __aeabi_unwind_cpp_pr0
    stm32f1xx_hal_flash_ex.o(.ARM.exidx) refers to stm32f1xx_hal_flash_ex.o(i.FLASH_OB_ProgramData) for i.FLASH_OB_ProgramData
    stm32f1xx_hal_flash_ex.o(.ARM.exidx) refers to unwind_pr0.o(.text) for __aeabi_unwind_cpp_pr0
    stm32f1xx_hal_flash_ex.o(.ARM.exidx) refers to stm32f1xx_hal_flash_ex.o(i.FLASH_OB_UserConfig) for i.FLASH_OB_UserConfig
    stm32f1xx_hal_flash_ex.o(.ARM.exidx) refers to unwind_pr0.o(.text) for __aeabi_unwind_cpp_pr0
    stm32f1xx_hal_flash_ex.o(.ARM.exidx) refers to stm32f1xx_hal_flash_ex.o(i.FLASH_OB_GetWRP) for i.FLASH_OB_GetWRP
    stm32f1xx_hal_flash_ex.o(.ARM.exidx) refers to stm32f1xx_hal_flash_ex.o(i.FLASH_OB_DisableWRP) for i.FLASH_OB_DisableWRP
    stm32f1xx_hal_flash_ex.o(.ARM.exidx) refers to unwind_pr0.o(.text) for __aeabi_unwind_cpp_pr0
    stm32f1xx_hal_flash_ex.o(.ARM.exidx) refers to stm32f1xx_hal_flash_ex.o(i.FLASH_OB_EnableWRP) for i.FLASH_OB_EnableWRP
    stm32f1xx_hal_flash_ex.o(.ARM.exidx) refers to unwind_pr0.o(.text) for __aeabi_unwind_cpp_pr0
    stm32f1xx_hal_flash_ex.o(.ARM.exidx) refers to stm32f1xx_hal_flash_ex.o(i.HAL_FLASHEx_OBProgram) for i.HAL_FLASHEx_OBProgram
    stm32f1xx_hal_flash_ex.o(.ARM.exidx) refers to unwind_pr0.o(.text) for __aeabi_unwind_cpp_pr0
    stm32f1xx_hal_flash_ex.o(.ARM.exidx) refers to stm32f1xx_hal_flash_ex.o(i.FLASH_OB_GetUser) for i.FLASH_OB_GetUser
    stm32f1xx_hal_flash_ex.o(.ARM.exidx) refers to stm32f1xx_hal_flash_ex.o(i.HAL_FLASHEx_OBGetConfig) for i.HAL_FLASHEx_OBGetConfig
    stm32f1xx_hal_flash_ex.o(.ARM.exidx) refers to unwind_pr0.o(.text) for __aeabi_unwind_cpp_pr0
    stm32f1xx_hal_flash_ex.o(.ARM.exidx) refers to stm32f1xx_hal_flash_ex.o(i.HAL_FLASHEx_OBGetUserData) for i.HAL_FLASHEx_OBGetUserData
    stm32f1xx_hal_exti.o(.ARM.exidx) refers to stm32f1xx_hal_exti.o(.rev16_text) for __asm___20_stm32f1xx_hal_exti_c_ad9bfa1e____REV16
    stm32f1xx_hal_exti.o(.ARM.exidx) refers to stm32f1xx_hal_exti.o(.revsh_text) for __asm___20_stm32f1xx_hal_exti_c_ad9bfa1e____REVSH
    stm32f1xx_hal_exti.o(.ARM.exidx) refers to stm32f1xx_hal_exti.o(.rrx_text) for __asm___20_stm32f1xx_hal_exti_c_ad9bfa1e____RRX
    stm32f1xx_hal_exti.o(.ARM.exidx) refers to stm32f1xx_hal_exti.o(i.HAL_EXTI_SetConfigLine) for i.HAL_EXTI_SetConfigLine
    stm32f1xx_hal_exti.o(.ARM.exidx) refers to unwind_pr0.o(.text) for __aeabi_unwind_cpp_pr0
    stm32f1xx_hal_exti.o(.ARM.exidx) refers to stm32f1xx_hal_exti.o(i.HAL_EXTI_GetConfigLine) for i.HAL_EXTI_GetConfigLine
    stm32f1xx_hal_exti.o(.ARM.exidx) refers to unwind_pr0.o(.text) for __aeabi_unwind_cpp_pr0
    stm32f1xx_hal_exti.o(.ARM.exidx) refers to stm32f1xx_hal_exti.o(i.HAL_EXTI_ClearConfigLine) for i.HAL_EXTI_ClearConfigLine
    stm32f1xx_hal_exti.o(.ARM.exidx) refers to unwind_pr0.o(.text) for __aeabi_unwind_cpp_pr0
    stm32f1xx_hal_exti.o(.ARM.exidx) refers to stm32f1xx_hal_exti.o(i.HAL_EXTI_RegisterCallback) for i.HAL_EXTI_RegisterCallback
    stm32f1xx_hal_exti.o(.ARM.exidx) refers to unwind_pr0.o(.text) for __aeabi_unwind_cpp_pr0
    stm32f1xx_hal_exti.o(.ARM.exidx) refers to stm32f1xx_hal_exti.o(i.HAL_EXTI_GetHandle) for i.HAL_EXTI_GetHandle
    stm32f1xx_hal_exti.o(.ARM.exidx) refers to stm32f1xx_hal_exti.o(i.HAL_EXTI_IRQHandler) for i.HAL_EXTI_IRQHandler
    stm32f1xx_hal_exti.o(.ARM.exidx) refers to unwind_pr0.o(.text) for __aeabi_unwind_cpp_pr0
    stm32f1xx_hal_exti.o(.ARM.exidx) refers to stm32f1xx_hal_exti.o(i.HAL_EXTI_GetPending) for i.HAL_EXTI_GetPending
    stm32f1xx_hal_exti.o(.ARM.exidx) refers to unwind_pr0.o(.text) for __aeabi_unwind_cpp_pr0
    stm32f1xx_hal_exti.o(.ARM.exidx) refers to stm32f1xx_hal_exti.o(i.HAL_EXTI_ClearPending) for i.HAL_EXTI_ClearPending
    stm32f1xx_hal_exti.o(.ARM.exidx) refers to unwind_pr0.o(.text) for __aeabi_unwind_cpp_pr0
    stm32f1xx_hal_exti.o(.ARM.exidx) refers to stm32f1xx_hal_exti.o(i.HAL_EXTI_GenerateSWI) for i.HAL_EXTI_GenerateSWI
    system_stm32f1xx.o(.ARM.exidx) refers to system_stm32f1xx.o(.rev16_text) for __asm___18_system_stm32f1xx_c_5d646a67____REV16
    system_stm32f1xx.o(.ARM.exidx) refers to system_stm32f1xx.o(.revsh_text) for __asm___18_system_stm32f1xx_c_5d646a67____REVSH
    system_stm32f1xx.o(.ARM.exidx) refers to system_stm32f1xx.o(.rrx_text) for __asm___18_system_stm32f1xx_c_5d646a67____RRX
    system_stm32f1xx.o(i.SystemCoreClockUpdate) refers to system_stm32f1xx.o(.data) for SystemCoreClock
    system_stm32f1xx.o(i.SystemCoreClockUpdate) refers to system_stm32f1xx.o(.constdata) for AHBPrescTable
    system_stm32f1xx.o(.ARM.exidx) refers to system_stm32f1xx.o(i.SystemInit) for i.SystemInit
    system_stm32f1xx.o(.ARM.exidx) refers to system_stm32f1xx.o(i.SystemCoreClockUpdate) for i.SystemCoreClockUpdate
    system_stm32f1xx.o(.ARM.exidx) refers to unwind_pr0.o(.text) for __aeabi_unwind_cpp_pr0
    unwind_pr1.o(.text) refers to unwind_prcommon.o(.text) for __ARM_unwind_cpp_prcommon
    unwind_pr1.o(.ARM.exidx) refers to unwind_pr1.o(.text) for .text
    unwind_pr0.o(.text) refers to unwind_prcommon.o(.text) for __ARM_unwind_cpp_prcommon
    unwind_pr0.o(.ARM.exidx) refers to unwind_pr0.o(.text) for .text
    entry.o(.ARM.Collect$$$$00000000) refers (Special) to entry10a.o(.ARM.Collect$$$$0000000F) for __rt_final_cpp
    entry.o(.ARM.Collect$$$$00000000) refers (Special) to entry11a.o(.ARM.Collect$$$$00000011) for __rt_final_exit
    entry.o(.ARM.Collect$$$$00000000) refers (Special) to entry12b.o(.ARM.Collect$$$$0000000E) for __rt_lib_shutdown_fini
    entry.o(.ARM.Collect$$$$00000000) refers (Special) to entry7b.o(.ARM.Collect$$$$00000008) for _main_clock
    entry.o(.ARM.Collect$$$$00000000) refers (Special) to entry8b.o(.ARM.Collect$$$$0000000A) for _main_cpp_init
    entry.o(.ARM.Collect$$$$00000000) refers (Special) to entry9a.o(.ARM.Collect$$$$0000000B) for _main_init
    entry.o(.ARM.Collect$$$$00000000) refers (Special) to entry5.o(.ARM.Collect$$$$00000004) for _main_scatterload
    entry.o(.ARM.Collect$$$$00000000) refers (Special) to entry2.o(.ARM.Collect$$$$00000001) for _main_stk
    printfb.o(i.__0fprintf$bare) refers to printfb.o(i._printf_core) for _printf_core
    printfb.o(i.__0fprintf$bare) refers to usart.o(i.fputc) for fputc
    printfb.o(i.__0printf$bare) refers to printfb.o(i._printf_core) for _printf_core
    printfb.o(i.__0printf$bare) refers to usart.o(i.fputc) for fputc
    printfb.o(i.__0printf$bare) refers to stdout.o(.data) for __stdout
    printfb.o(i.__0snprintf$bare) refers to printfb.o(i._printf_core) for _printf_core
    printfb.o(i.__0snprintf$bare) refers to printfb.o(i._snputc) for _snputc
    printfb.o(i.__0sprintf$bare) refers to printfb.o(i._printf_core) for _printf_core
    printfb.o(i.__0sprintf$bare) refers to printfb.o(i._sputc) for _sputc
    printfb.o(i.__0vfprintf$bare) refers to printfb.o(i._printf_core) for _printf_core
    printfb.o(i.__0vfprintf$bare) refers to usart.o(i.fputc) for fputc
    printfb.o(i.__0vprintf$bare) refers to printfb.o(i._printf_core) for _printf_core
    printfb.o(i.__0vprintf$bare) refers to usart.o(i.fputc) for fputc
    printfb.o(i.__0vprintf$bare) refers to stdout.o(.data) for __stdout
    printfb.o(i.__0vsnprintf$bare) refers to printfb.o(i._printf_core) for _printf_core
    printfb.o(i.__0vsnprintf$bare) refers to printfb.o(i._snputc) for _snputc
    printfb.o(i.__0vsprintf$bare) refers to printfb.o(i._printf_core) for _printf_core
    printfb.o(i.__0vsprintf$bare) refers to printfb.o(i._sputc) for _sputc
    printf0.o(i.__0fprintf$0) refers to printf0.o(i._printf_core) for _printf_core
    printf0.o(i.__0fprintf$0) refers to usart.o(i.fputc) for fputc
    printf0.o(i.__0printf$0) refers to printf0.o(i._printf_core) for _printf_core
    printf0.o(i.__0printf$0) refers to usart.o(i.fputc) for fputc
    printf0.o(i.__0printf$0) refers to stdout.o(.data) for __stdout
    printf0.o(i.__0snprintf$0) refers to printf0.o(i._printf_core) for _printf_core
    printf0.o(i.__0snprintf$0) refers to printf0.o(i._snputc) for _snputc
    printf0.o(i.__0sprintf$0) refers to printf0.o(i._printf_core) for _printf_core
    printf0.o(i.__0sprintf$0) refers to printf0.o(i._sputc) for _sputc
    printf0.o(i.__0vfprintf$0) refers to printf0.o(i._printf_core) for _printf_core
    printf0.o(i.__0vfprintf$0) refers to usart.o(i.fputc) for fputc
    printf0.o(i.__0vprintf$0) refers to printf0.o(i._printf_core) for _printf_core
    printf0.o(i.__0vprintf$0) refers to usart.o(i.fputc) for fputc
    printf0.o(i.__0vprintf$0) refers to stdout.o(.data) for __stdout
    printf0.o(i.__0vsnprintf$0) refers to printf0.o(i._printf_core) for _printf_core
    printf0.o(i.__0vsnprintf$0) refers to printf0.o(i._snputc) for _snputc
    printf0.o(i.__0vsprintf$0) refers to printf0.o(i._printf_core) for _printf_core
    printf0.o(i.__0vsprintf$0) refers to printf0.o(i._sputc) for _sputc
    printf1.o(i.__0fprintf$1) refers to printf1.o(i._printf_core) for _printf_core
    printf1.o(i.__0fprintf$1) refers to usart.o(i.fputc) for fputc
    printf1.o(i.__0printf$1) refers to printf1.o(i._printf_core) for _printf_core
    printf1.o(i.__0printf$1) refers to usart.o(i.fputc) for fputc
    printf1.o(i.__0printf$1) refers to stdout.o(.data) for __stdout
    printf1.o(i.__0snprintf$1) refers to printf1.o(i._printf_core) for _printf_core
    printf1.o(i.__0snprintf$1) refers to printf1.o(i._snputc) for _snputc
    printf1.o(i.__0sprintf$1) refers to printf1.o(i._printf_core) for _printf_core
    printf1.o(i.__0sprintf$1) refers to printf1.o(i._sputc) for _sputc
    printf1.o(i.__0vfprintf$1) refers to printf1.o(i._printf_core) for _printf_core
    printf1.o(i.__0vfprintf$1) refers to usart.o(i.fputc) for fputc
    printf1.o(i.__0vprintf$1) refers to printf1.o(i._printf_core) for _printf_core
    printf1.o(i.__0vprintf$1) refers to usart.o(i.fputc) for fputc
    printf1.o(i.__0vprintf$1) refers to stdout.o(.data) for __stdout
    printf1.o(i.__0vsnprintf$1) refers to printf1.o(i._printf_core) for _printf_core
    printf1.o(i.__0vsnprintf$1) refers to printf1.o(i._snputc) for _snputc
    printf1.o(i.__0vsprintf$1) refers to printf1.o(i._printf_core) for _printf_core
    printf1.o(i.__0vsprintf$1) refers to printf1.o(i._sputc) for _sputc
    printf1.o(i._printf_core) refers to uidiv.o(.text) for __aeabi_uidivmod
    printf2.o(i.__0fprintf$2) refers to printf2.o(i._printf_core) for _printf_core
    printf2.o(i.__0fprintf$2) refers to usart.o(i.fputc) for fputc
    printf2.o(i.__0printf$2) refers to printf2.o(i._printf_core) for _printf_core
    printf2.o(i.__0printf$2) refers to usart.o(i.fputc) for fputc
    printf2.o(i.__0printf$2) refers to stdout.o(.data) for __stdout
    printf2.o(i.__0snprintf$2) refers to printf2.o(i._printf_core) for _printf_core
    printf2.o(i.__0snprintf$2) refers to printf2.o(i._snputc) for _snputc
    printf2.o(i.__0sprintf$2) refers to printf2.o(i._printf_core) for _printf_core
    printf2.o(i.__0sprintf$2) refers to printf2.o(i._sputc) for _sputc
    printf2.o(i.__0vfprintf$2) refers to printf2.o(i._printf_core) for _printf_core
    printf2.o(i.__0vfprintf$2) refers to usart.o(i.fputc) for fputc
    printf2.o(i.__0vprintf$2) refers to printf2.o(i._printf_core) for _printf_core
    printf2.o(i.__0vprintf$2) refers to usart.o(i.fputc) for fputc
    printf2.o(i.__0vprintf$2) refers to stdout.o(.data) for __stdout
    printf2.o(i.__0vsnprintf$2) refers to printf2.o(i._printf_core) for _printf_core
    printf2.o(i.__0vsnprintf$2) refers to printf2.o(i._snputc) for _snputc
    printf2.o(i.__0vsprintf$2) refers to printf2.o(i._printf_core) for _printf_core
    printf2.o(i.__0vsprintf$2) refers to printf2.o(i._sputc) for _sputc
    printf3.o(i.__0fprintf$3) refers to printf3.o(i._printf_core) for _printf_core
    printf3.o(i.__0fprintf$3) refers to usart.o(i.fputc) for fputc
    printf3.o(i.__0printf$3) refers to printf3.o(i._printf_core) for _printf_core
    printf3.o(i.__0printf$3) refers to usart.o(i.fputc) for fputc
    printf3.o(i.__0printf$3) refers to stdout.o(.data) for __stdout
    printf3.o(i.__0snprintf$3) refers to printf3.o(i._printf_core) for _printf_core
    printf3.o(i.__0snprintf$3) refers to printf3.o(i._snputc) for _snputc
    printf3.o(i.__0sprintf$3) refers to printf3.o(i._printf_core) for _printf_core
    printf3.o(i.__0sprintf$3) refers to printf3.o(i._sputc) for _sputc
    printf3.o(i.__0vfprintf$3) refers to printf3.o(i._printf_core) for _printf_core
    printf3.o(i.__0vfprintf$3) refers to usart.o(i.fputc) for fputc
    printf3.o(i.__0vprintf$3) refers to printf3.o(i._printf_core) for _printf_core
    printf3.o(i.__0vprintf$3) refers to usart.o(i.fputc) for fputc
    printf3.o(i.__0vprintf$3) refers to stdout.o(.data) for __stdout
    printf3.o(i.__0vsnprintf$3) refers to printf3.o(i._printf_core) for _printf_core
    printf3.o(i.__0vsnprintf$3) refers to printf3.o(i._snputc) for _snputc
    printf3.o(i.__0vsprintf$3) refers to printf3.o(i._printf_core) for _printf_core
    printf3.o(i.__0vsprintf$3) refers to printf3.o(i._sputc) for _sputc
    printf3.o(i._printf_core) refers to uidiv.o(.text) for __aeabi_uidivmod
    printf4.o(i.__0fprintf$4) refers to printf4.o(i._printf_core) for _printf_core
    printf4.o(i.__0fprintf$4) refers to usart.o(i.fputc) for fputc
    printf4.o(i.__0printf$4) refers to printf4.o(i._printf_core) for _printf_core
    printf4.o(i.__0printf$4) refers to usart.o(i.fputc) for fputc
    printf4.o(i.__0printf$4) refers to stdout.o(.data) for __stdout
    printf4.o(i.__0snprintf$4) refers to printf4.o(i._printf_core) for _printf_core
    printf4.o(i.__0snprintf$4) refers to printf4.o(i._snputc) for _snputc
    printf4.o(i.__0sprintf$4) refers to printf4.o(i._printf_core) for _printf_core
    printf4.o(i.__0sprintf$4) refers to printf4.o(i._sputc) for _sputc
    printf4.o(i.__0vfprintf$4) refers to printf4.o(i._printf_core) for _printf_core
    printf4.o(i.__0vfprintf$4) refers to usart.o(i.fputc) for fputc
    printf4.o(i.__0vprintf$4) refers to printf4.o(i._printf_core) for _printf_core
    printf4.o(i.__0vprintf$4) refers to usart.o(i.fputc) for fputc
    printf4.o(i.__0vprintf$4) refers to stdout.o(.data) for __stdout
    printf4.o(i.__0vsnprintf$4) refers to printf4.o(i._printf_core) for _printf_core
    printf4.o(i.__0vsnprintf$4) refers to printf4.o(i._snputc) for _snputc
    printf4.o(i.__0vsprintf$4) refers to printf4.o(i._printf_core) for _printf_core
    printf4.o(i.__0vsprintf$4) refers to printf4.o(i._sputc) for _sputc
    printf4.o(i._printf_core) refers to uldiv.o(.text) for __aeabi_uldivmod
    printf5.o(i.__0fprintf$5) refers to printf5.o(i._printf_core) for _printf_core
    printf5.o(i.__0fprintf$5) refers to usart.o(i.fputc) for fputc
    printf5.o(i.__0printf$5) refers to printf5.o(i._printf_core) for _printf_core
    printf5.o(i.__0printf$5) refers to usart.o(i.fputc) for fputc
    printf5.o(i.__0printf$5) refers to stdout.o(.data) for __stdout
    printf5.o(i.__0snprintf$5) refers to printf5.o(i._printf_core) for _printf_core
    printf5.o(i.__0snprintf$5) refers to printf5.o(i._snputc) for _snputc
    printf5.o(i.__0sprintf$5) refers to printf5.o(i._printf_core) for _printf_core
    printf5.o(i.__0sprintf$5) refers to printf5.o(i._sputc) for _sputc
    printf5.o(i.__0vfprintf$5) refers to printf5.o(i._printf_core) for _printf_core
    printf5.o(i.__0vfprintf$5) refers to usart.o(i.fputc) for fputc
    printf5.o(i.__0vprintf$5) refers to printf5.o(i._printf_core) for _printf_core
    printf5.o(i.__0vprintf$5) refers to usart.o(i.fputc) for fputc
    printf5.o(i.__0vprintf$5) refers to stdout.o(.data) for __stdout
    printf5.o(i.__0vsnprintf$5) refers to printf5.o(i._printf_core) for _printf_core
    printf5.o(i.__0vsnprintf$5) refers to printf5.o(i._snputc) for _snputc
    printf5.o(i.__0vsprintf$5) refers to printf5.o(i._printf_core) for _printf_core
    printf5.o(i.__0vsprintf$5) refers to printf5.o(i._sputc) for _sputc
    printf5.o(i._printf_core) refers to uldiv.o(.text) for __aeabi_uldivmod
    printf6.o(i.__0fprintf$6) refers to printf6.o(i._printf_core) for _printf_core
    printf6.o(i.__0fprintf$6) refers to usart.o(i.fputc) for fputc
    printf6.o(i.__0printf$6) refers to printf6.o(i._printf_core) for _printf_core
    printf6.o(i.__0printf$6) refers to usart.o(i.fputc) for fputc
    printf6.o(i.__0printf$6) refers to stdout.o(.data) for __stdout
    printf6.o(i.__0snprintf$6) refers to printf6.o(i._printf_core) for _printf_core
    printf6.o(i.__0snprintf$6) refers to printf6.o(i._snputc) for _snputc
    printf6.o(i.__0sprintf$6) refers to printf6.o(i._printf_core) for _printf_core
    printf6.o(i.__0sprintf$6) refers to printf6.o(i._sputc) for _sputc
    printf6.o(i.__0vfprintf$6) refers to printf6.o(i._printf_core) for _printf_core
    printf6.o(i.__0vfprintf$6) refers to usart.o(i.fputc) for fputc
    printf6.o(i.__0vprintf$6) refers to printf6.o(i._printf_core) for _printf_core
    printf6.o(i.__0vprintf$6) refers to usart.o(i.fputc) for fputc
    printf6.o(i.__0vprintf$6) refers to stdout.o(.data) for __stdout
    printf6.o(i.__0vsnprintf$6) refers to printf6.o(i._printf_core) for _printf_core
    printf6.o(i.__0vsnprintf$6) refers to printf6.o(i._snputc) for _snputc
    printf6.o(i.__0vsprintf$6) refers to printf6.o(i._printf_core) for _printf_core
    printf6.o(i.__0vsprintf$6) refers to printf6.o(i._sputc) for _sputc
    printf6.o(i._printf_core) refers to printf6.o(i._printf_pre_padding) for _printf_pre_padding
    printf6.o(i._printf_core) refers to uidiv.o(.text) for __aeabi_uidivmod
    printf6.o(i._printf_core) refers to printf6.o(i._printf_post_padding) for _printf_post_padding
    printf7.o(i.__0fprintf$7) refers to printf7.o(i._printf_core) for _printf_core
    printf7.o(i.__0fprintf$7) refers to usart.o(i.fputc) for fputc
    printf7.o(i.__0printf$7) refers to printf7.o(i._printf_core) for _printf_core
    printf7.o(i.__0printf$7) refers to usart.o(i.fputc) for fputc
    printf7.o(i.__0printf$7) refers to stdout.o(.data) for __stdout
    printf7.o(i.__0snprintf$7) refers to printf7.o(i._printf_core) for _printf_core
    printf7.o(i.__0snprintf$7) refers to printf7.o(i._snputc) for _snputc
    printf7.o(i.__0sprintf$7) refers to printf7.o(i._printf_core) for _printf_core
    printf7.o(i.__0sprintf$7) refers to printf7.o(i._sputc) for _sputc
    printf7.o(i.__0vfprintf$7) refers to printf7.o(i._printf_core) for _printf_core
    printf7.o(i.__0vfprintf$7) refers to usart.o(i.fputc) for fputc
    printf7.o(i.__0vprintf$7) refers to printf7.o(i._printf_core) for _printf_core
    printf7.o(i.__0vprintf$7) refers to usart.o(i.fputc) for fputc
    printf7.o(i.__0vprintf$7) refers to stdout.o(.data) for __stdout
    printf7.o(i.__0vsnprintf$7) refers to printf7.o(i._printf_core) for _printf_core
    printf7.o(i.__0vsnprintf$7) refers to printf7.o(i._snputc) for _snputc
    printf7.o(i.__0vsprintf$7) refers to printf7.o(i._printf_core) for _printf_core
    printf7.o(i.__0vsprintf$7) refers to printf7.o(i._sputc) for _sputc
    printf7.o(i._printf_core) refers to printf7.o(i._printf_pre_padding) for _printf_pre_padding
    printf7.o(i._printf_core) refers to uldiv.o(.text) for __aeabi_uldivmod
    printf7.o(i._printf_core) refers to printf7.o(i._printf_post_padding) for _printf_post_padding
    printf8.o(i.__0fprintf$8) refers to printf8.o(i._printf_core) for _printf_core
    printf8.o(i.__0fprintf$8) refers to usart.o(i.fputc) for fputc
    printf8.o(i.__0printf$8) refers to printf8.o(i._printf_core) for _printf_core
    printf8.o(i.__0printf$8) refers to usart.o(i.fputc) for fputc
    printf8.o(i.__0printf$8) refers to stdout.o(.data) for __stdout
    printf8.o(i.__0snprintf$8) refers to printf8.o(i._printf_core) for _printf_core
    printf8.o(i.__0snprintf$8) refers to printf8.o(i._snputc) for _snputc
    printf8.o(i.__0sprintf$8) refers to printf8.o(i._printf_core) for _printf_core
    printf8.o(i.__0sprintf$8) refers to printf8.o(i._sputc) for _sputc
    printf8.o(i.__0vfprintf$8) refers to printf8.o(i._printf_core) for _printf_core
    printf8.o(i.__0vfprintf$8) refers to usart.o(i.fputc) for fputc
    printf8.o(i.__0vprintf$8) refers to printf8.o(i._printf_core) for _printf_core
    printf8.o(i.__0vprintf$8) refers to usart.o(i.fputc) for fputc
    printf8.o(i.__0vprintf$8) refers to stdout.o(.data) for __stdout
    printf8.o(i.__0vsnprintf$8) refers to printf8.o(i._printf_core) for _printf_core
    printf8.o(i.__0vsnprintf$8) refers to printf8.o(i._snputc) for _snputc
    printf8.o(i.__0vsprintf$8) refers to printf8.o(i._printf_core) for _printf_core
    printf8.o(i.__0vsprintf$8) refers to printf8.o(i._sputc) for _sputc
    printf8.o(i._printf_core) refers to printf8.o(i._printf_pre_padding) for _printf_pre_padding
    printf8.o(i._printf_core) refers to uldiv.o(.text) for __aeabi_uldivmod
    printf8.o(i._printf_core) refers to printf8.o(i._printf_post_padding) for _printf_post_padding
    printfa.o(i.__0fprintf) refers (Special) to iusefp.o(.text) for __I$use$fp
    printfa.o(i.__0fprintf) refers to printfa.o(i._printf_core) for _printf_core
    printfa.o(i.__0fprintf) refers to usart.o(i.fputc) for fputc
    printfa.o(i.__0printf) refers (Special) to iusefp.o(.text) for __I$use$fp
    printfa.o(i.__0printf) refers to printfa.o(i._printf_core) for _printf_core
    printfa.o(i.__0printf) refers to usart.o(i.fputc) for fputc
    printfa.o(i.__0printf) refers to stdout.o(.data) for __stdout
    printfa.o(i.__0snprintf) refers (Special) to iusefp.o(.text) for __I$use$fp
    printfa.o(i.__0snprintf) refers to printfa.o(i._printf_core) for _printf_core
    printfa.o(i.__0snprintf) refers to printfa.o(i._snputc) for _snputc
    printfa.o(i.__0sprintf) refers (Special) to iusefp.o(.text) for __I$use$fp
    printfa.o(i.__0sprintf) refers to printfa.o(i._printf_core) for _printf_core
    printfa.o(i.__0sprintf) refers to printfa.o(i._sputc) for _sputc
    printfa.o(i.__0vfprintf) refers (Special) to iusefp.o(.text) for __I$use$fp
    printfa.o(i.__0vfprintf) refers to printfa.o(i._printf_core) for _printf_core
    printfa.o(i.__0vfprintf) refers to usart.o(i.fputc) for fputc
    printfa.o(i.__0vprintf) refers (Special) to iusefp.o(.text) for __I$use$fp
    printfa.o(i.__0vprintf) refers to printfa.o(i._printf_core) for _printf_core
    printfa.o(i.__0vprintf) refers to usart.o(i.fputc) for fputc
    printfa.o(i.__0vprintf) refers to stdout.o(.data) for __stdout
    printfa.o(i.__0vsnprintf) refers (Special) to iusefp.o(.text) for __I$use$fp
    printfa.o(i.__0vsnprintf) refers to printfa.o(i._printf_core) for _printf_core
    printfa.o(i.__0vsnprintf) refers to printfa.o(i._snputc) for _snputc
    printfa.o(i.__0vsprintf) refers (Special) to iusefp.o(.text) for __I$use$fp
    printfa.o(i.__0vsprintf) refers to printfa.o(i._printf_core) for _printf_core
    printfa.o(i.__0vsprintf) refers to printfa.o(i._sputc) for _sputc
    printfa.o(i._fp_digits) refers (Special) to iusefp.o(.text) for __I$use$fp
    printfa.o(i._fp_digits) refers to dmul.o(.text) for __aeabi_dmul
    printfa.o(i._fp_digits) refers to ddiv.o(.text) for __aeabi_ddiv
    printfa.o(i._fp_digits) refers to cdrcmple.o(.text) for __aeabi_cdrcmple
    printfa.o(i._fp_digits) refers to dadd.o(.text) for __aeabi_dadd
    printfa.o(i._fp_digits) refers to dfixul.o(.text) for __aeabi_d2ulz
    printfa.o(i._fp_digits) refers to uldiv.o(.text) for __aeabi_uldivmod
    printfa.o(i._printf_core) refers (Special) to iusefp.o(.text) for __I$use$fp
    printfa.o(i._printf_core) refers to printfa.o(i._printf_pre_padding) for _printf_pre_padding
    printfa.o(i._printf_core) refers to uldiv.o(.text) for __aeabi_uldivmod
    printfa.o(i._printf_core) refers to printfa.o(i._printf_post_padding) for _printf_post_padding
    printfa.o(i._printf_core) refers to printfa.o(i._fp_digits) for _fp_digits
    printfa.o(i._printf_core) refers to uidiv.o(.text) for __aeabi_uidivmod
    printfa.o(i._printf_post_padding) refers (Special) to iusefp.o(.text) for __I$use$fp
    printfa.o(i._printf_pre_padding) refers (Special) to iusefp.o(.text) for __I$use$fp
    printfa.o(i._snputc) refers (Special) to iusefp.o(.text) for __I$use$fp
    printfa.o(i._sputc) refers (Special) to iusefp.o(.text) for __I$use$fp
    unwind_prcommon.o(.text) refers to unwinder.o(.text) for _Unwind_VRS_Get
    unwind_prcommon.o(.text) refers to unwind_activity.o(.emb_text) for _Unwind_Activity
    unwind_prcommon.o(.ARM.exidx) refers to unwind_prcommon.o(.text) for .text
    entry2.o(.ARM.Collect$$$$00000001) refers to entry2.o(.ARM.Collect$$$$00002712) for __lit__00000000
    entry2.o(.ARM.Collect$$$$00002712) refers to startup_stm32f103xe.o(STACK) for __initial_sp
    entry2.o(__vectab_stack_and_reset_area) refers to startup_stm32f103xe.o(STACK) for __initial_sp
    entry2.o(__vectab_stack_and_reset_area) refers to entry.o(.ARM.Collect$$$$00000000) for __main
    entry5.o(.ARM.Collect$$$$00000004) refers to init.o(.text) for __scatterload
    entry9a.o(.ARM.Collect$$$$0000000B) refers to main.o(i.main) for main
    entry9b.o(.ARM.Collect$$$$0000000C) refers to main.o(i.main) for main
    uldiv.o(.text) refers to llushr.o(.text) for __aeabi_llsr
    uldiv.o(.text) refers to llshl.o(.text) for __aeabi_llsl
    dadd.o(.text) refers to llshl.o(.text) for __aeabi_llsl
    dadd.o(.text) refers to llsshr.o(.text) for __aeabi_lasr
    dadd.o(.text) refers to depilogue.o(.text) for _double_epilogue
    dmul.o(.text) refers to depilogue.o(.text) for _double_epilogue
    ddiv.o(.text) refers to depilogue.o(.text) for _double_round
    dfixul.o(.text) refers to llushr.o(.text) for __aeabi_llsr
    dfixul.o(.text) refers to llshl.o(.text) for __aeabi_llsl
    unwinder.o(.emb_text) refers to unwinder.o(.text) for __ARM_Unwind_RaiseException
    unwinder.o(.text) refers to bsearch.o(.text) for bsearch
    unwinder.o(.text) refers to unwind_activity.o(.emb_text) for _Unwind_Activity
    unwinder.o(.text) refers to unwinder.o(.emb_text) for __ARM_Unwind_VRS_corerestore
    unwinder.o(.text) refers to malloc.o(i.malloc) for malloc
    unwinder.o(.text) refers to memcpya.o(.text) for __aeabi_memcpy4
    unwinder.o(.text) refers to malloc.o(i.free) for free
    unwinder.o(.text) refers (Weak) to unwind_pr0.o(.text) for __aeabi_unwind_cpp_pr0
    unwinder.o(.text) refers (Weak) to unwind_pr1.o(.text) for __aeabi_unwind_cpp_pr1
    unwinder.o(.ARM.exidx) refers to unwinder.o(.text) for .text
    init.o(.text) refers to entry5.o(.ARM.Collect$$$$00000004) for __main_after_scatterload
    depilogue.o(.text) refers to llshl.o(.text) for __aeabi_llsl
    depilogue.o(.text) refers to llushr.o(.text) for __aeabi_llsr
    malloc.o(i.free) refers to mvars.o(.data) for __microlib_freelist
    malloc.o(i.malloc) refers to mvars.o(.data) for __microlib_freelist_initialised
    malloc.o(i.malloc) refers to mvars.o(.data) for __microlib_freelist
    malloc.o(i.malloc) refers to startup_stm32f103xe.o(HEAP) for __heap_base
    mallocr.o(i.__free$realloc) refers to mvars.o(.data) for __microlib_freelist
    mallocr.o(i.__malloc$realloc) refers to mallocr.o(i.internal_alloc) for internal_alloc
    mallocr.o(i.__malloc$realloc) refers to mvars.o(.data) for __microlib_freelist_initialised
    mallocr.o(i.__malloc$realloc) refers to startup_stm32f103xe.o(HEAP) for __heap_base
    mallocr.o(i.__malloc$realloc) refers to mvars.o(.data) for __microlib_freelist
    mallocr.o(i.internal_alloc) refers to memcpya.o(.text) for __aeabi_memcpy
    mallocr.o(i.internal_alloc) refers to mvars.o(.data) for __microlib_freelist
    mallocr.o(i.realloc) refers to mallocr.o(i.__free$realloc) for __free$realloc
    mallocr.o(i.realloc) refers to mallocr.o(i.internal_alloc) for internal_alloc
    mallocr.o(i.realloc) refers to mallocr.o(i.__malloc$realloc) for __malloc$realloc
    mallocr.o(i.realloc) refers to mvars.o(.data) for __microlib_freelist
    malloca.o(i.__aligned_malloc) refers to mvars.o(.data) for __microlib_freelist_initialised
    malloca.o(i.__aligned_malloc) refers to mvars.o(.data) for __microlib_freelist
    malloca.o(i.__aligned_malloc) refers to startup_stm32f103xe.o(HEAP) for __heap_base
    malloca.o(i.__free$memalign) refers to mvars.o(.data) for __microlib_freelist
    malloca.o(i.__malloc$memalign) refers to malloca.o(i.__aligned_malloc) for __aligned_malloc
    mallocra.o(i.__aligned_malloc$realloc) refers to mallocra.o(i.internal_alloc) for internal_alloc
    mallocra.o(i.__aligned_malloc$realloc) refers to mvars.o(.data) for __microlib_freelist_initialised
    mallocra.o(i.__aligned_malloc$realloc) refers to startup_stm32f103xe.o(HEAP) for __heap_base
    mallocra.o(i.__aligned_malloc$realloc) refers to mvars.o(.data) for __microlib_freelist
    mallocra.o(i.__free$realloc$memalign) refers to mvars.o(.data) for __microlib_freelist
    mallocra.o(i.__malloc$realloc$memalign) refers to mallocra.o(i.__aligned_malloc$realloc) for __aligned_malloc$realloc
    mallocra.o(i.__realloc$memalign) refers to mallocra.o(i.__free$realloc$memalign) for __free$realloc$memalign
    mallocra.o(i.__realloc$memalign) refers to mallocra.o(i.internal_alloc) for internal_alloc
    mallocra.o(i.__realloc$memalign) refers to mallocra.o(i.__malloc$realloc$memalign) for __malloc$realloc$memalign
    mallocra.o(i.__realloc$memalign) refers to mvars.o(.data) for __microlib_freelist
    mallocra.o(i.internal_alloc) refers to memcpya.o(.text) for __aeabi_memcpy
    mallocra.o(i.internal_alloc) refers to mvars.o(.data) for __microlib_freelist


==============================================================================

Removing Unused input sections from the image.

    Removing dadd.o(.text), (334 bytes).
    Removing dmul.o(.text), (228 bytes).
    Removing ddiv.o(.text), (222 bytes).
    Removing dfixul.o(.text), (48 bytes).
    Removing cdrcmple.o(.text), (48 bytes).
    Removing depilogue.o(.text), (186 bytes).

6 unused section(s) (total 1066 bytes) removed from the image.

==============================================================================

Image Symbol Table

    Local Symbols

    Symbol Name                              Value     Ov Type        Size  Object(Section)

    ../../../clib/unwind_pr.c                0x00000000   Number         0  unwind_pr0.o ABSOLUTE
    ../../../clib/unwind_pr.c                0x00000000   Number         0  unwind_prcommon.o ABSOLUTE
    ../../../clib/unwind_pr.c                0x00000000   Number         0  unwind_pr1.o ABSOLUTE
    ../../../clib/unwinder.c                 0x00000000   Number         0  unwind_activity.o ABSOLUTE
    ../../../clib/unwinder.c                 0x00000000   Number         0  unwinder.o ABSOLUTE
    ../../../clib/unwinder.c                 0x00000000   Number         0  unwinder.o ABSOLUTE
    ../../../clib/unwinder.c                 0x00000000   Number         0  unwind_activity.o ABSOLUTE
    ../Core/Src/gpio.c                       0x00000000   Number         0  gpio.o ABSOLUTE
    ../Core/Src/main.c                       0x00000000   Number         0  main.o ABSOLUTE
    ../Core/Src/stm32f1xx_hal_msp.c          0x00000000   Number         0  stm32f1xx_hal_msp.o ABSOLUTE
    ../Core/Src/stm32f1xx_it.c               0x00000000   Number         0  stm32f1xx_it.o ABSOLUTE
    ../Core/Src/system_stm32f1xx.c           0x00000000   Number         0  system_stm32f1xx.o ABSOLUTE
    ../Core/Src/usart.c                      0x00000000   Number         0  usart.o ABSOLUTE
    ../Drivers/STM32F1xx_HAL_Driver/Src/stm32f1xx_hal.c 0x00000000   Number         0  stm32f1xx_hal.o ABSOLUTE
    ../Drivers/STM32F1xx_HAL_Driver/Src/stm32f1xx_hal_cortex.c 0x00000000   Number         0  stm32f1xx_hal_cortex.o ABSOLUTE
    ../Drivers/STM32F1xx_HAL_Driver/Src/stm32f1xx_hal_dma.c 0x00000000   Number         0  stm32f1xx_hal_dma.o ABSOLUTE
    ../Drivers/STM32F1xx_HAL_Driver/Src/stm32f1xx_hal_exti.c 0x00000000   Number         0  stm32f1xx_hal_exti.o ABSOLUTE
    ../Drivers/STM32F1xx_HAL_Driver/Src/stm32f1xx_hal_flash.c 0x00000000   Number         0  stm32f1xx_hal_flash.o ABSOLUTE
    ../Drivers/STM32F1xx_HAL_Driver/Src/stm32f1xx_hal_flash_ex.c 0x00000000   Number         0  stm32f1xx_hal_flash_ex.o ABSOLUTE
    ../Drivers/STM32F1xx_HAL_Driver/Src/stm32f1xx_hal_gpio.c 0x00000000   Number         0  stm32f1xx_hal_gpio.o ABSOLUTE
    ../Drivers/STM32F1xx_HAL_Driver/Src/stm32f1xx_hal_gpio_ex.c 0x00000000   Number         0  stm32f1xx_hal_gpio_ex.o ABSOLUTE
    ../Drivers/STM32F1xx_HAL_Driver/Src/stm32f1xx_hal_pwr.c 0x00000000   Number         0  stm32f1xx_hal_pwr.o ABSOLUTE
    ../Drivers/STM32F1xx_HAL_Driver/Src/stm32f1xx_hal_rcc.c 0x00000000   Number         0  stm32f1xx_hal_rcc.o ABSOLUTE
    ../Drivers/STM32F1xx_HAL_Driver/Src/stm32f1xx_hal_rcc_ex.c 0x00000000   Number         0  stm32f1xx_hal_rcc_ex.o ABSOLUTE
    ../Drivers/STM32F1xx_HAL_Driver/Src/stm32f1xx_hal_tim.c 0x00000000   Number         0  stm32f1xx_hal_tim.o ABSOLUTE
    ../Drivers/STM32F1xx_HAL_Driver/Src/stm32f1xx_hal_tim_ex.c 0x00000000   Number         0  stm32f1xx_hal_tim_ex.o ABSOLUTE
    ../Drivers/STM32F1xx_HAL_Driver/Src/stm32f1xx_hal_uart.c 0x00000000   Number         0  stm32f1xx_hal_uart.o ABSOLUTE
    ../clib/microlib/division.c              0x00000000   Number         0  uidiv.o ABSOLUTE
    ../clib/microlib/division.c              0x00000000   Number         0  uldiv.o ABSOLUTE
    ../clib/microlib/init/entry.s            0x00000000   Number         0  entry10a.o ABSOLUTE
    ../clib/microlib/init/entry.s            0x00000000   Number         0  entry10b.o ABSOLUTE
    ../clib/microlib/init/entry.s            0x00000000   Number         0  entry11a.o ABSOLUTE
    ../clib/microlib/init/entry.s            0x00000000   Number         0  entry5.o ABSOLUTE
    ../clib/microlib/init/entry.s            0x00000000   Number         0  entry.o ABSOLUTE
    ../clib/microlib/init/entry.s            0x00000000   Number         0  entry7a.o ABSOLUTE
    ../clib/microlib/init/entry.s            0x00000000   Number         0  entry7b.o ABSOLUTE
    ../clib/microlib/init/entry.s            0x00000000   Number         0  entry2.o ABSOLUTE
    ../clib/microlib/init/entry.s            0x00000000   Number         0  entry12a.o ABSOLUTE
    ../clib/microlib/init/entry.s            0x00000000   Number         0  entry8a.o ABSOLUTE
    ../clib/microlib/init/entry.s            0x00000000   Number         0  entry11b.o ABSOLUTE
    ../clib/microlib/init/entry.s            0x00000000   Number         0  entry9b.o ABSOLUTE
    ../clib/microlib/init/entry.s            0x00000000   Number         0  entry9a.o ABSOLUTE
    ../clib/microlib/init/entry.s            0x00000000   Number         0  entry8b.o ABSOLUTE
    ../clib/microlib/init/entry.s            0x00000000   Number         0  entry12b.o ABSOLUTE
    ../clib/microlib/longlong.c              0x00000000   Number         0  llushr.o ABSOLUTE
    ../clib/microlib/longlong.c              0x00000000   Number         0  llsshr.o ABSOLUTE
    ../clib/microlib/longlong.c              0x00000000   Number         0  llshl.o ABSOLUTE
    ../clib/microlib/malloc/malloc.c         0x00000000   Number         0  malloc.o ABSOLUTE
    ../clib/microlib/malloc/malloc.c         0x00000000   Number         0  mallocra.o ABSOLUTE
    ../clib/microlib/malloc/malloc.c         0x00000000   Number         0  mallocr.o ABSOLUTE
    ../clib/microlib/malloc/malloc.c         0x00000000   Number         0  malloca.o ABSOLUTE
    ../clib/microlib/malloc/mvars.c          0x00000000   Number         0  mvars.o ABSOLUTE
    ../clib/microlib/printf/printf.c         0x00000000   Number         0  printf3.o ABSOLUTE
    ../clib/microlib/printf/printf.c         0x00000000   Number         0  printf2.o ABSOLUTE
    ../clib/microlib/printf/printf.c         0x00000000   Number         0  printf1.o ABSOLUTE
    ../clib/microlib/printf/printf.c         0x00000000   Number         0  printfb.o ABSOLUTE
    ../clib/microlib/printf/printf.c         0x00000000   Number         0  printf0.o ABSOLUTE
    ../clib/microlib/printf/printf.c         0x00000000   Number         0  printfa.o ABSOLUTE
    ../clib/microlib/printf/printf.c         0x00000000   Number         0  printf8.o ABSOLUTE
    ../clib/microlib/printf/printf.c         0x00000000   Number         0  printf7.o ABSOLUTE
    ../clib/microlib/printf/printf.c         0x00000000   Number         0  printf6.o ABSOLUTE
    ../clib/microlib/printf/printf.c         0x00000000   Number         0  printf5.o ABSOLUTE
    ../clib/microlib/printf/printf.c         0x00000000   Number         0  printf4.o ABSOLUTE
    ../clib/microlib/printf/stubs.s          0x00000000   Number         0  stubs.o ABSOLUTE
    ../clib/microlib/stdio/streams.c         0x00000000   Number         0  stdout.o ABSOLUTE
    ../clib/microlib/stdlib/abort.c          0x00000000   Number         0  abort.o ABSOLUTE
    ../clib/microlib/stdlib/bsearch.c        0x00000000   Number         0  bsearch.o ABSOLUTE
    ../clib/microlib/string/memcpy.c         0x00000000   Number         0  memcpya.o ABSOLUTE
    ../clib/microlib/string/memcpy.c         0x00000000   Number         0  memcpyb.o ABSOLUTE
    ../clib/microlib/string/memset.c         0x00000000   Number         0  memseta.o ABSOLUTE
    ../clib/microlib/stubs.s                 0x00000000   Number         0  iusefp.o ABSOLUTE
    ../fplib/microlib/fpadd.c                0x00000000   Number         0  dadd.o ABSOLUTE
    ../fplib/microlib/fpdiv.c                0x00000000   Number         0  ddiv.o ABSOLUTE
    ../fplib/microlib/fpepilogue.c           0x00000000   Number         0  depilogue.o ABSOLUTE
    ../fplib/microlib/fpfix.c                0x00000000   Number         0  dfixul.o ABSOLUTE
    ../fplib/microlib/fpmul.c                0x00000000   Number         0  dmul.o ABSOLUTE
    ..\Core\Src\gpio.c                       0x00000000   Number         0  gpio.o ABSOLUTE
    ..\Core\Src\main.c                       0x00000000   Number         0  main.o ABSOLUTE
    ..\Core\Src\stm32f1xx_hal_msp.c          0x00000000   Number         0  stm32f1xx_hal_msp.o ABSOLUTE
    ..\Core\Src\stm32f1xx_it.c               0x00000000   Number         0  stm32f1xx_it.o ABSOLUTE
    ..\Core\Src\system_stm32f1xx.c           0x00000000   Number         0  system_stm32f1xx.o ABSOLUTE
    ..\Core\Src\unwind.c                     0x00000000   Number         0  unwind.o ABSOLUTE
    ..\Core\Src\usart.c                      0x00000000   Number         0  usart.o ABSOLUTE
    ..\Drivers\STM32F1xx_HAL_Driver\Src\stm32f1xx_hal.c 0x00000000   Number         0  stm32f1xx_hal.o ABSOLUTE
    ..\Drivers\STM32F1xx_HAL_Driver\Src\stm32f1xx_hal_cortex.c 0x00000000   Number         0  stm32f1xx_hal_cortex.o ABSOLUTE
    ..\Drivers\STM32F1xx_HAL_Driver\Src\stm32f1xx_hal_dma.c 0x00000000   Number         0  stm32f1xx_hal_dma.o ABSOLUTE
    ..\Drivers\STM32F1xx_HAL_Driver\Src\stm32f1xx_hal_exti.c 0x00000000   Number         0  stm32f1xx_hal_exti.o ABSOLUTE
    ..\Drivers\STM32F1xx_HAL_Driver\Src\stm32f1xx_hal_flash.c 0x00000000   Number         0  stm32f1xx_hal_flash.o ABSOLUTE
    ..\Drivers\STM32F1xx_HAL_Driver\Src\stm32f1xx_hal_flash_ex.c 0x00000000   Number         0  stm32f1xx_hal_flash_ex.o ABSOLUTE
    ..\Drivers\STM32F1xx_HAL_Driver\Src\stm32f1xx_hal_gpio.c 0x00000000   Number         0  stm32f1xx_hal_gpio.o ABSOLUTE
    ..\Drivers\STM32F1xx_HAL_Driver\Src\stm32f1xx_hal_gpio_ex.c 0x00000000   Number         0  stm32f1xx_hal_gpio_ex.o ABSOLUTE
    ..\Drivers\STM32F1xx_HAL_Driver\Src\stm32f1xx_hal_pwr.c 0x00000000   Number         0  stm32f1xx_hal_pwr.o ABSOLUTE
    ..\Drivers\STM32F1xx_HAL_Driver\Src\stm32f1xx_hal_rcc.c 0x00000000   Number         0  stm32f1xx_hal_rcc.o ABSOLUTE
    ..\Drivers\STM32F1xx_HAL_Driver\Src\stm32f1xx_hal_rcc_ex.c 0x00000000   Number         0  stm32f1xx_hal_rcc_ex.o ABSOLUTE
    ..\Drivers\STM32F1xx_HAL_Driver\Src\stm32f1xx_hal_tim.c 0x00000000   Number         0  stm32f1xx_hal_tim.o ABSOLUTE
    ..\Drivers\STM32F1xx_HAL_Driver\Src\stm32f1xx_hal_tim_ex.c 0x00000000   Number         0  stm32f1xx_hal_tim_ex.o ABSOLUTE
    ..\Drivers\STM32F1xx_HAL_Driver\Src\stm32f1xx_hal_uart.c 0x00000000   Number         0  stm32f1xx_hal_uart.o ABSOLUTE
    cdrcmple.s                               0x00000000   Number         0  cdrcmple.o ABSOLUTE
    dc.s                                     0x00000000   Number         0  dc.o ABSOLUTE
    handlers.s                               0x00000000   Number         0  handlers.o ABSOLUTE
    init.s                                   0x00000000   Number         0  init.o ABSOLUTE
    startup_stm32f103xe.s                    0x00000000   Number         0  startup_stm32f103xe.o ABSOLUTE
    RESET                                    0x08000000   Section      304  startup_stm32f103xe.o(RESET)
    .ARM.Collect$$$$00000000                 0x08000130   Section        0  entry.o(.ARM.Collect$$$$00000000)
    .ARM.Collect$$$$00000001                 0x08000130   Section        4  entry2.o(.ARM.Collect$$$$00000001)
    .ARM.Collect$$$$00000004                 0x08000134   Section        4  entry5.o(.ARM.Collect$$$$00000004)
    .ARM.Collect$$$$00000008                 0x08000138   Section        0  entry7b.o(.ARM.Collect$$$$00000008)
    .ARM.Collect$$$$0000000A                 0x08000138   Section        0  entry8b.o(.ARM.Collect$$$$0000000A)
    .ARM.Collect$$$$0000000B                 0x08000138   Section        8  entry9a.o(.ARM.Collect$$$$0000000B)
    .ARM.Collect$$$$0000000E                 0x08000140   Section        4  entry12b.o(.ARM.Collect$$$$0000000E)
    .ARM.Collect$$$$0000000F                 0x08000144   Section        0  entry10a.o(.ARM.Collect$$$$0000000F)
    .ARM.Collect$$$$00000011                 0x08000144   Section        0  entry11a.o(.ARM.Collect$$$$00000011)
    .ARM.Collect$$$$00002712                 0x08000144   Section        4  entry2.o(.ARM.Collect$$$$00002712)
    __lit__00000000                          0x08000144   Data           4  entry2.o(.ARM.Collect$$$$00002712)
    .emb_text                                0x08000148   Section      124  unwinder.o(.emb_text)
    .emb_text                                0x080001c4   Section        4  unwind_activity.o(.emb_text)
    .rev16_text                              0x080001c8   Section        4  main.o(.rev16_text)
    .rev16_text                              0x080001cc   Section        4  gpio.o(.rev16_text)
    .rev16_text                              0x080001d0   Section        4  usart.o(.rev16_text)
    .rev16_text                              0x080001d4   Section        4  stm32f1xx_it.o(.rev16_text)
    .rev16_text                              0x080001d8   Section        4  stm32f1xx_hal_msp.o(.rev16_text)
    .rev16_text                              0x080001dc   Section        4  stm32f1xx_hal_gpio_ex.o(.rev16_text)
    .rev16_text                              0x080001e0   Section        4  stm32f1xx_hal_tim.o(.rev16_text)
    .rev16_text                              0x080001e4   Section        4  stm32f1xx_hal_tim_ex.o(.rev16_text)
    .rev16_text                              0x080001e8   Section        4  stm32f1xx_hal_uart.o(.rev16_text)
    .rev16_text                              0x080001ec   Section        4  stm32f1xx_hal.o(.rev16_text)
    .rev16_text                              0x080001f0   Section        4  stm32f1xx_hal_rcc.o(.rev16_text)
    .rev16_text                              0x080001f4   Section        4  stm32f1xx_hal_rcc_ex.o(.rev16_text)
    .rev16_text                              0x080001f8   Section        4  stm32f1xx_hal_gpio.o(.rev16_text)
    .rev16_text                              0x080001fc   Section        4  stm32f1xx_hal_dma.o(.rev16_text)
    .rev16_text                              0x08000200   Section        4  stm32f1xx_hal_cortex.o(.rev16_text)
    .rev16_text                              0x08000204   Section        4  stm32f1xx_hal_pwr.o(.rev16_text)
    .rev16_text                              0x08000208   Section        4  stm32f1xx_hal_flash.o(.rev16_text)
    .rev16_text                              0x0800020c   Section        4  stm32f1xx_hal_flash_ex.o(.rev16_text)
    .rev16_text                              0x08000210   Section        4  stm32f1xx_hal_exti.o(.rev16_text)
    .rev16_text                              0x08000214   Section        4  system_stm32f1xx.o(.rev16_text)
    .revsh_text                              0x08000218   Section        4  main.o(.revsh_text)
    .revsh_text                              0x0800021c   Section        4  gpio.o(.revsh_text)
    .revsh_text                              0x08000220   Section        4  usart.o(.revsh_text)
    .revsh_text                              0x08000224   Section        4  stm32f1xx_it.o(.revsh_text)
    .revsh_text                              0x08000228   Section        4  stm32f1xx_hal_msp.o(.revsh_text)
    .revsh_text                              0x0800022c   Section        4  stm32f1xx_hal_gpio_ex.o(.revsh_text)
    .revsh_text                              0x08000230   Section        4  stm32f1xx_hal_tim.o(.revsh_text)
    .revsh_text                              0x08000234   Section        4  stm32f1xx_hal_tim_ex.o(.revsh_text)
    .revsh_text                              0x08000238   Section        4  stm32f1xx_hal_uart.o(.revsh_text)
    .revsh_text                              0x0800023c   Section        4  stm32f1xx_hal.o(.revsh_text)
    .revsh_text                              0x08000240   Section        4  stm32f1xx_hal_rcc.o(.revsh_text)
    .revsh_text                              0x08000244   Section        4  stm32f1xx_hal_rcc_ex.o(.revsh_text)
    .revsh_text                              0x08000248   Section        4  stm32f1xx_hal_gpio.o(.revsh_text)
    .revsh_text                              0x0800024c   Section        4  stm32f1xx_hal_dma.o(.revsh_text)
    .revsh_text                              0x08000250   Section        4  stm32f1xx_hal_cortex.o(.revsh_text)
    .revsh_text                              0x08000254   Section        4  stm32f1xx_hal_pwr.o(.revsh_text)
    .revsh_text                              0x08000258   Section        4  stm32f1xx_hal_flash.o(.revsh_text)
    .revsh_text                              0x0800025c   Section        4  stm32f1xx_hal_flash_ex.o(.revsh_text)
    .revsh_text                              0x08000260   Section        4  stm32f1xx_hal_exti.o(.revsh_text)
    .revsh_text                              0x08000264   Section        4  system_stm32f1xx.o(.revsh_text)
    .rrx_text                                0x08000268   Section        6  main.o(.rrx_text)
    .rrx_text                                0x08000270   Section        6  gpio.o(.rrx_text)
    .rrx_text                                0x08000278   Section        6  usart.o(.rrx_text)
    .rrx_text                                0x08000280   Section        6  stm32f1xx_it.o(.rrx_text)
    .rrx_text                                0x08000288   Section        6  stm32f1xx_hal_msp.o(.rrx_text)
    .rrx_text                                0x08000290   Section        6  stm32f1xx_hal_gpio_ex.o(.rrx_text)
    .rrx_text                                0x08000298   Section        6  stm32f1xx_hal_tim.o(.rrx_text)
    .rrx_text                                0x080002a0   Section        6  stm32f1xx_hal_tim_ex.o(.rrx_text)
    .rrx_text                                0x080002a8   Section        6  stm32f1xx_hal_uart.o(.rrx_text)
    .rrx_text                                0x080002b0   Section        6  stm32f1xx_hal.o(.rrx_text)
    .rrx_text                                0x080002b8   Section        6  stm32f1xx_hal_rcc.o(.rrx_text)
    .rrx_text                                0x080002c0   Section        6  stm32f1xx_hal_rcc_ex.o(.rrx_text)
    .rrx_text                                0x080002c8   Section        6  stm32f1xx_hal_gpio.o(.rrx_text)
    .rrx_text                                0x080002d0   Section        6  stm32f1xx_hal_dma.o(.rrx_text)
    .rrx_text                                0x080002d8   Section        6  stm32f1xx_hal_cortex.o(.rrx_text)
    .rrx_text                                0x080002e0   Section        6  stm32f1xx_hal_pwr.o(.rrx_text)
    .rrx_text                                0x080002e8   Section        6  stm32f1xx_hal_flash.o(.rrx_text)
    .rrx_text                                0x080002f0   Section        6  stm32f1xx_hal_flash_ex.o(.rrx_text)
    .rrx_text                                0x080002f8   Section        6  stm32f1xx_hal_exti.o(.rrx_text)
    .rrx_text                                0x08000300   Section        6  system_stm32f1xx.o(.rrx_text)
    .text                                    0x08000308   Section       36  startup_stm32f103xe.o(.text)
    .text                                    0x0800032c   Section        0  unwind_pr1.o(.text)
    .text                                    0x08000332   Section        0  unwind_pr0.o(.text)
    .text                                    0x08000338   Section        0  llushr.o(.text)
    .text                                    0x08000358   Section        0  memseta.o(.text)
    .text                                    0x0800037c   Section        0  unwind_prcommon.o(.text)
    [local to unwind_pr_c]::next_unwind_byte(uwdata*) 0x0800037d   Thumb Code    48  unwind_prcommon.o(.text)
    .text                                    0x08000970   Section        0  uldiv.o(.text)
    .text                                    0x080009d4   Section        0  unwinder.o(.text)
    [local to unwinder_c]::EIT_comparator(const void*, const void*) 0x08000b41   Thumb Code    58  unwinder.o(.text)
    [local to unwinder_c]::find_and_expand_eit_entry(_Unwind_Control_Block*, unsigned) 0x08000b7b   Thumb Code   158  unwinder.o(.text)
    .text                                    0x08000da0   Section       36  init.o(.text)
    .text                                    0x08000dc4   Section        0  llshl.o(.text)
    .text                                    0x08000de2   Section        0  bsearch.o(.text)
    .text                                    0x08000e28   Section        0  memcpya.o(.text)
    i.BusFault_Handler                       0x08000e4c   Section        0  stm32f1xx_it.o(i.BusFault_Handler)
    i.DMA_SetConfig                          0x08000e50   Section        0  stm32f1xx_hal_dma.o(i.DMA_SetConfig)
    DMA_SetConfig                            0x08000e51   Thumb Code    44  stm32f1xx_hal_dma.o(i.DMA_SetConfig)
    i.DebugMon_Handler                       0x08000e7c   Section        0  stm32f1xx_it.o(i.DebugMon_Handler)
    i.Error_Handler                          0x08000e7e   Section        0  main.o(i.Error_Handler)
    i.FLASH_MassErase                        0x08000e84   Section        0  stm32f1xx_hal_flash_ex.o(i.FLASH_MassErase)
    FLASH_MassErase                          0x08000e85   Thumb Code    30  stm32f1xx_hal_flash_ex.o(i.FLASH_MassErase)
    i.FLASH_OB_DisableWRP                    0x08000eac   Section        0  stm32f1xx_hal_flash_ex.o(i.FLASH_OB_DisableWRP)
    FLASH_OB_DisableWRP                      0x08000ead   Thumb Code   218  stm32f1xx_hal_flash_ex.o(i.FLASH_OB_DisableWRP)
    i.FLASH_OB_EnableWRP                     0x08000f94   Section        0  stm32f1xx_hal_flash_ex.o(i.FLASH_OB_EnableWRP)
    FLASH_OB_EnableWRP                       0x08000f95   Thumb Code   222  stm32f1xx_hal_flash_ex.o(i.FLASH_OB_EnableWRP)
    i.FLASH_OB_GetRDP                        0x08001080   Section        0  stm32f1xx_hal_flash_ex.o(i.FLASH_OB_GetRDP)
    FLASH_OB_GetRDP                          0x08001081   Thumb Code    24  stm32f1xx_hal_flash_ex.o(i.FLASH_OB_GetRDP)
    i.FLASH_OB_GetUser                       0x0800109c   Section        0  stm32f1xx_hal_flash_ex.o(i.FLASH_OB_GetUser)
    FLASH_OB_GetUser                         0x0800109d   Thumb Code    10  stm32f1xx_hal_flash_ex.o(i.FLASH_OB_GetUser)
    i.FLASH_OB_GetWRP                        0x080010ac   Section        0  stm32f1xx_hal_flash_ex.o(i.FLASH_OB_GetWRP)
    FLASH_OB_GetWRP                          0x080010ad   Thumb Code     6  stm32f1xx_hal_flash_ex.o(i.FLASH_OB_GetWRP)
    i.FLASH_OB_ProgramData                   0x080010b8   Section        0  stm32f1xx_hal_flash_ex.o(i.FLASH_OB_ProgramData)
    FLASH_OB_ProgramData                     0x080010b9   Thumb Code    66  stm32f1xx_hal_flash_ex.o(i.FLASH_OB_ProgramData)
    i.FLASH_OB_RDP_LevelConfig               0x08001104   Section        0  stm32f1xx_hal_flash_ex.o(i.FLASH_OB_RDP_LevelConfig)
    FLASH_OB_RDP_LevelConfig                 0x08001105   Thumb Code   110  stm32f1xx_hal_flash_ex.o(i.FLASH_OB_RDP_LevelConfig)
    i.FLASH_OB_UserConfig                    0x08001180   Section        0  stm32f1xx_hal_flash_ex.o(i.FLASH_OB_UserConfig)
    FLASH_OB_UserConfig                      0x08001181   Thumb Code    70  stm32f1xx_hal_flash_ex.o(i.FLASH_OB_UserConfig)
    i.FLASH_PageErase                        0x080011d4   Section        0  stm32f1xx_hal_flash_ex.o(i.FLASH_PageErase)
    i.FLASH_Program_HalfWord                 0x080011fc   Section        0  stm32f1xx_hal_flash.o(i.FLASH_Program_HalfWord)
    FLASH_Program_HalfWord                   0x080011fd   Thumb Code    22  stm32f1xx_hal_flash.o(i.FLASH_Program_HalfWord)
    i.FLASH_SetErrorCode                     0x0800121c   Section        0  stm32f1xx_hal_flash.o(i.FLASH_SetErrorCode)
    FLASH_SetErrorCode                       0x0800121d   Thumb Code   124  stm32f1xx_hal_flash.o(i.FLASH_SetErrorCode)
    i.FLASH_WaitForLastOperation             0x080012a0   Section        0  stm32f1xx_hal_flash.o(i.FLASH_WaitForLastOperation)
    i.HAL_DBGMCU_DisableDBGSleepMode         0x08001310   Section        0  stm32f1xx_hal.o(i.HAL_DBGMCU_DisableDBGSleepMode)
    i.HAL_DBGMCU_DisableDBGStandbyMode       0x08001324   Section        0  stm32f1xx_hal.o(i.HAL_DBGMCU_DisableDBGStandbyMode)
    i.HAL_DBGMCU_DisableDBGStopMode          0x08001338   Section        0  stm32f1xx_hal.o(i.HAL_DBGMCU_DisableDBGStopMode)
    i.HAL_DBGMCU_EnableDBGSleepMode          0x0800134c   Section        0  stm32f1xx_hal.o(i.HAL_DBGMCU_EnableDBGSleepMode)
    i.HAL_DBGMCU_EnableDBGStandbyMode        0x08001360   Section        0  stm32f1xx_hal.o(i.HAL_DBGMCU_EnableDBGStandbyMode)
    i.HAL_DBGMCU_EnableDBGStopMode           0x08001374   Section        0  stm32f1xx_hal.o(i.HAL_DBGMCU_EnableDBGStopMode)
    i.HAL_DMA_Abort                          0x08001388   Section        0  stm32f1xx_hal_dma.o(i.HAL_DMA_Abort)
    i.HAL_DMA_Abort_IT                       0x080013e0   Section        0  stm32f1xx_hal_dma.o(i.HAL_DMA_Abort_IT)
    i.HAL_DMA_DeInit                         0x08001588   Section        0  stm32f1xx_hal_dma.o(i.HAL_DMA_DeInit)
    i.HAL_DMA_GetError                       0x08001614   Section        0  stm32f1xx_hal_dma.o(i.HAL_DMA_GetError)
    i.HAL_DMA_GetState                       0x0800161a   Section        0  stm32f1xx_hal_dma.o(i.HAL_DMA_GetState)
    i.HAL_DMA_IRQHandler                     0x08001624   Section        0  stm32f1xx_hal_dma.o(i.HAL_DMA_IRQHandler)
    i.HAL_DMA_Init                           0x080019bc   Section        0  stm32f1xx_hal_dma.o(i.HAL_DMA_Init)
    i.HAL_DMA_PollForTransfer                0x08001a48   Section        0  stm32f1xx_hal_dma.o(i.HAL_DMA_PollForTransfer)
    i.HAL_DMA_RegisterCallback               0x0800209c   Section        0  stm32f1xx_hal_dma.o(i.HAL_DMA_RegisterCallback)
    i.HAL_DMA_Start                          0x080020f6   Section        0  stm32f1xx_hal_dma.o(i.HAL_DMA_Start)
    i.HAL_DMA_Start_IT                       0x08002168   Section        0  stm32f1xx_hal_dma.o(i.HAL_DMA_Start_IT)
    i.HAL_DMA_UnRegisterCallback             0x08002204   Section        0  stm32f1xx_hal_dma.o(i.HAL_DMA_UnRegisterCallback)
    i.HAL_DeInit                             0x08002270   Section        0  stm32f1xx_hal.o(i.HAL_DeInit)
    i.HAL_Delay                              0x08002294   Section        0  stm32f1xx_hal.o(i.HAL_Delay)
    i.HAL_EXTI_ClearConfigLine               0x080022bc   Section        0  stm32f1xx_hal_exti.o(i.HAL_EXTI_ClearConfigLine)
    i.HAL_EXTI_ClearPending                  0x08002334   Section        0  stm32f1xx_hal_exti.o(i.HAL_EXTI_ClearPending)
    i.HAL_EXTI_GenerateSWI                   0x08002350   Section        0  stm32f1xx_hal_exti.o(i.HAL_EXTI_GenerateSWI)
    i.HAL_EXTI_GetConfigLine                 0x08002368   Section        0  stm32f1xx_hal_exti.o(i.HAL_EXTI_GetConfigLine)
    i.HAL_EXTI_GetHandle                     0x08002404   Section        0  stm32f1xx_hal_exti.o(i.HAL_EXTI_GetHandle)
    i.HAL_EXTI_GetPending                    0x08002414   Section        0  stm32f1xx_hal_exti.o(i.HAL_EXTI_GetPending)
    i.HAL_EXTI_IRQHandler                    0x08002438   Section        0  stm32f1xx_hal_exti.o(i.HAL_EXTI_IRQHandler)
    i.HAL_EXTI_RegisterCallback              0x08002464   Section        0  stm32f1xx_hal_exti.o(i.HAL_EXTI_RegisterCallback)
    i.HAL_EXTI_SetConfigLine                 0x08002478   Section        0  stm32f1xx_hal_exti.o(i.HAL_EXTI_SetConfigLine)
    i.HAL_FLASHEx_Erase                      0x08002568   Section        0  stm32f1xx_hal_flash_ex.o(i.HAL_FLASHEx_Erase)
    i.HAL_FLASHEx_Erase_IT                   0x08002618   Section        0  stm32f1xx_hal_flash_ex.o(i.HAL_FLASHEx_Erase_IT)
    i.HAL_FLASHEx_OBErase                    0x08002668   Section        0  stm32f1xx_hal_flash_ex.o(i.HAL_FLASHEx_OBErase)
    i.HAL_FLASHEx_OBGetConfig                0x080026c8   Section        0  stm32f1xx_hal_flash_ex.o(i.HAL_FLASHEx_OBGetConfig)
    i.HAL_FLASHEx_OBGetUserData              0x080026e4   Section        0  stm32f1xx_hal_flash_ex.o(i.HAL_FLASHEx_OBGetUserData)
    i.HAL_FLASHEx_OBProgram                  0x0800270c   Section        0  stm32f1xx_hal_flash_ex.o(i.HAL_FLASHEx_OBProgram)
    i.HAL_FLASH_EndOfOperationCallback       0x080027d4   Section        0  stm32f1xx_hal_flash.o(i.HAL_FLASH_EndOfOperationCallback)
    i.HAL_FLASH_GetError                     0x080027d8   Section        0  stm32f1xx_hal_flash.o(i.HAL_FLASH_GetError)
    i.HAL_FLASH_IRQHandler                   0x080027e4   Section        0  stm32f1xx_hal_flash.o(i.HAL_FLASH_IRQHandler)
    i.HAL_FLASH_Lock                         0x0800295c   Section        0  stm32f1xx_hal_flash.o(i.HAL_FLASH_Lock)
    i.HAL_FLASH_OB_Launch                    0x08002970   Section        0  stm32f1xx_hal_flash.o(i.HAL_FLASH_OB_Launch)
    i.HAL_FLASH_OB_Lock                      0x08002978   Section        0  stm32f1xx_hal_flash.o(i.HAL_FLASH_OB_Lock)
    i.HAL_FLASH_OB_Unlock                    0x0800298c   Section        0  stm32f1xx_hal_flash.o(i.HAL_FLASH_OB_Unlock)
    i.HAL_FLASH_OperationErrorCallback       0x080029b8   Section        0  stm32f1xx_hal_flash.o(i.HAL_FLASH_OperationErrorCallback)
    i.HAL_FLASH_Program                      0x080029bc   Section        0  stm32f1xx_hal_flash.o(i.HAL_FLASH_Program)
    i.HAL_FLASH_Program_IT                   0x08002a6c   Section        0  stm32f1xx_hal_flash.o(i.HAL_FLASH_Program_IT)
    i.HAL_FLASH_Unlock                       0x08002ad0   Section        0  stm32f1xx_hal_flash.o(i.HAL_FLASH_Unlock)
    i.HAL_GPIOEx_ConfigEventout              0x08002b00   Section        0  stm32f1xx_hal_gpio_ex.o(i.HAL_GPIOEx_ConfigEventout)
    i.HAL_GPIOEx_DisableEventout             0x08002b18   Section        0  stm32f1xx_hal_gpio_ex.o(i.HAL_GPIOEx_DisableEventout)
    i.HAL_GPIOEx_EnableEventout              0x08002b2c   Section        0  stm32f1xx_hal_gpio_ex.o(i.HAL_GPIOEx_EnableEventout)
    i.HAL_GPIO_DeInit                        0x08002b40   Section        0  stm32f1xx_hal_gpio.o(i.HAL_GPIO_DeInit)
    i.HAL_GPIO_EXTI_Callback                 0x08002c94   Section        0  stm32f1xx_hal_gpio.o(i.HAL_GPIO_EXTI_Callback)
    i.HAL_GPIO_EXTI_IRQHandler               0x08002c98   Section        0  stm32f1xx_hal_gpio.o(i.HAL_GPIO_EXTI_IRQHandler)
    i.HAL_GPIO_Init                          0x08002cb4   Section        0  stm32f1xx_hal_gpio.o(i.HAL_GPIO_Init)
    i.HAL_GPIO_LockPin                       0x08002ff4   Section        0  stm32f1xx_hal_gpio.o(i.HAL_GPIO_LockPin)
    i.HAL_GPIO_ReadPin                       0x08003022   Section        0  stm32f1xx_hal_gpio.o(i.HAL_GPIO_ReadPin)
    i.HAL_GPIO_TogglePin                     0x08003032   Section        0  stm32f1xx_hal_gpio.o(i.HAL_GPIO_TogglePin)
    i.HAL_GPIO_WritePin                      0x08003046   Section        0  stm32f1xx_hal_gpio.o(i.HAL_GPIO_WritePin)
    i.HAL_GetDEVID                           0x08003054   Section        0  stm32f1xx_hal.o(i.HAL_GetDEVID)
    i.HAL_GetHalVersion                      0x08003064   Section        0  stm32f1xx_hal.o(i.HAL_GetHalVersion)
    i.HAL_GetREVID                           0x0800306c   Section        0  stm32f1xx_hal.o(i.HAL_GetREVID)
    i.HAL_GetTick                            0x08003078   Section        0  stm32f1xx_hal.o(i.HAL_GetTick)
    i.HAL_GetTickFreq                        0x08003084   Section        0  stm32f1xx_hal.o(i.HAL_GetTickFreq)
    i.HAL_GetTickPrio                        0x08003090   Section        0  stm32f1xx_hal.o(i.HAL_GetTickPrio)
    i.HAL_GetUIDw0                           0x0800309c   Section        0  stm32f1xx_hal.o(i.HAL_GetUIDw0)
    i.HAL_GetUIDw1                           0x080030a8   Section        0  stm32f1xx_hal.o(i.HAL_GetUIDw1)
    i.HAL_GetUIDw2                           0x080030b4   Section        0  stm32f1xx_hal.o(i.HAL_GetUIDw2)
    i.HAL_HalfDuplex_EnableReceiver          0x080030c0   Section        0  stm32f1xx_hal_uart.o(i.HAL_HalfDuplex_EnableReceiver)
    i.HAL_HalfDuplex_EnableTransmitter       0x08003104   Section        0  stm32f1xx_hal_uart.o(i.HAL_HalfDuplex_EnableTransmitter)
    i.HAL_HalfDuplex_Init                    0x08003148   Section        0  stm32f1xx_hal_uart.o(i.HAL_HalfDuplex_Init)
    i.HAL_IncTick                            0x080031c4   Section        0  stm32f1xx_hal.o(i.HAL_IncTick)
    i.HAL_Init                               0x080031dc   Section        0  stm32f1xx_hal.o(i.HAL_Init)
    i.HAL_InitTick                           0x08003204   Section        0  stm32f1xx_hal.o(i.HAL_InitTick)
    i.HAL_LIN_Init                           0x08003250   Section        0  stm32f1xx_hal_uart.o(i.HAL_LIN_Init)
    i.HAL_LIN_SendBreak                      0x080032e2   Section        0  stm32f1xx_hal_uart.o(i.HAL_LIN_SendBreak)
    i.HAL_MspDeInit                          0x08003332   Section        0  stm32f1xx_hal.o(i.HAL_MspDeInit)
    i.HAL_MspInit                            0x08003334   Section        0  stm32f1xx_hal_msp.o(i.HAL_MspInit)
    i.HAL_MspInit                            0x08003388   Section        0  stm32f1xx_hal.o(i.HAL_MspInit)
    i.HAL_MultiProcessor_EnterMuteMode       0x0800338a   Section        0  stm32f1xx_hal_uart.o(i.HAL_MultiProcessor_EnterMuteMode)
    i.HAL_MultiProcessor_ExitMuteMode        0x080033dc   Section        0  stm32f1xx_hal_uart.o(i.HAL_MultiProcessor_ExitMuteMode)
    i.HAL_MultiProcessor_Init                0x0800342e   Section        0  stm32f1xx_hal_uart.o(i.HAL_MultiProcessor_Init)
    i.HAL_NVIC_ClearPendingIRQ               0x080034cc   Section        0  stm32f1xx_hal_cortex.o(i.HAL_NVIC_ClearPendingIRQ)
    i.HAL_NVIC_DisableIRQ                    0x080034f0   Section        0  stm32f1xx_hal_cortex.o(i.HAL_NVIC_DisableIRQ)
    i.HAL_NVIC_EnableIRQ                     0x08003534   Section        0  stm32f1xx_hal_cortex.o(i.HAL_NVIC_EnableIRQ)
    i.HAL_NVIC_GetActive                     0x08003554   Section        0  stm32f1xx_hal_cortex.o(i.HAL_NVIC_GetActive)
    i.HAL_NVIC_GetPendingIRQ                 0x08003584   Section        0  stm32f1xx_hal_cortex.o(i.HAL_NVIC_GetPendingIRQ)
    i.HAL_NVIC_GetPriority                   0x080035b4   Section        0  stm32f1xx_hal_cortex.o(i.HAL_NVIC_GetPriority)
    i.HAL_NVIC_GetPriorityGrouping           0x08003648   Section        0  stm32f1xx_hal_cortex.o(i.HAL_NVIC_GetPriorityGrouping)
    i.HAL_NVIC_SetPendingIRQ                 0x08003650   Section        0  stm32f1xx_hal_cortex.o(i.HAL_NVIC_SetPendingIRQ)
    i.HAL_NVIC_SetPriority                   0x08003674   Section        0  stm32f1xx_hal_cortex.o(i.HAL_NVIC_SetPriority)
    i.HAL_NVIC_SetPriorityGrouping           0x080036f0   Section        0  stm32f1xx_hal_cortex.o(i.HAL_NVIC_SetPriorityGrouping)
    i.HAL_NVIC_SystemReset                   0x08003718   Section        0  stm32f1xx_hal_cortex.o(i.HAL_NVIC_SystemReset)
    i.HAL_PWR_ConfigPVD                      0x0800375c   Section        0  stm32f1xx_hal_pwr.o(i.HAL_PWR_ConfigPVD)
    i.HAL_PWR_DeInit                         0x08003810   Section        0  stm32f1xx_hal_pwr.o(i.HAL_PWR_DeInit)
    i.HAL_PWR_DisableBkUpAccess              0x0800382c   Section        0  stm32f1xx_hal_pwr.o(i.HAL_PWR_DisableBkUpAccess)
    i.HAL_PWR_DisablePVD                     0x08003838   Section        0  stm32f1xx_hal_pwr.o(i.HAL_PWR_DisablePVD)
    i.HAL_PWR_DisableSEVOnPend               0x08003844   Section        0  stm32f1xx_hal_pwr.o(i.HAL_PWR_DisableSEVOnPend)
    i.HAL_PWR_DisableSleepOnExit             0x08003858   Section        0  stm32f1xx_hal_pwr.o(i.HAL_PWR_DisableSleepOnExit)
    i.HAL_PWR_DisableWakeUpPin               0x0800386c   Section        0  stm32f1xx_hal_pwr.o(i.HAL_PWR_DisableWakeUpPin)
    i.HAL_PWR_EnableBkUpAccess               0x08003888   Section        0  stm32f1xx_hal_pwr.o(i.HAL_PWR_EnableBkUpAccess)
    i.HAL_PWR_EnablePVD                      0x08003894   Section        0  stm32f1xx_hal_pwr.o(i.HAL_PWR_EnablePVD)
    i.HAL_PWR_EnableSEVOnPend                0x080038a0   Section        0  stm32f1xx_hal_pwr.o(i.HAL_PWR_EnableSEVOnPend)
    i.HAL_PWR_EnableSleepOnExit              0x080038b4   Section        0  stm32f1xx_hal_pwr.o(i.HAL_PWR_EnableSleepOnExit)
    i.HAL_PWR_EnableWakeUpPin                0x080038c8   Section        0  stm32f1xx_hal_pwr.o(i.HAL_PWR_EnableWakeUpPin)
    i.HAL_PWR_EnterSLEEPMode                 0x080038e4   Section        0  stm32f1xx_hal_pwr.o(i.HAL_PWR_EnterSLEEPMode)
    i.HAL_PWR_EnterSTANDBYMode               0x08003904   Section        0  stm32f1xx_hal_pwr.o(i.HAL_PWR_EnterSTANDBYMode)
    i.HAL_PWR_EnterSTOPMode                  0x0800392c   Section        0  stm32f1xx_hal_pwr.o(i.HAL_PWR_EnterSTOPMode)
    i.HAL_PWR_PVDCallback                    0x08003980   Section        0  stm32f1xx_hal_pwr.o(i.HAL_PWR_PVDCallback)
    i.HAL_PWR_PVD_IRQHandler                 0x08003984   Section        0  stm32f1xx_hal_pwr.o(i.HAL_PWR_PVD_IRQHandler)
    i.HAL_RCCEx_GetPeriphCLKConfig           0x080039a4   Section        0  stm32f1xx_hal_rcc_ex.o(i.HAL_RCCEx_GetPeriphCLKConfig)
    i.HAL_RCCEx_GetPeriphCLKFreq             0x080039f8   Section        0  stm32f1xx_hal_rcc_ex.o(i.HAL_RCCEx_GetPeriphCLKFreq)
    i.HAL_RCCEx_PeriphCLKConfig              0x08003b10   Section        0  stm32f1xx_hal_rcc_ex.o(i.HAL_RCCEx_PeriphCLKConfig)
    i.HAL_RCC_CSSCallback                    0x08003c40   Section        0  stm32f1xx_hal_rcc.o(i.HAL_RCC_CSSCallback)
    i.HAL_RCC_ClockConfig                    0x08003c44   Section        0  stm32f1xx_hal_rcc.o(i.HAL_RCC_ClockConfig)
    i.HAL_RCC_DeInit                         0x08003dd0   Section        0  stm32f1xx_hal_rcc.o(i.HAL_RCC_DeInit)
    i.HAL_RCC_DisableCSS                     0x08003ee0   Section        0  stm32f1xx_hal_rcc.o(i.HAL_RCC_DisableCSS)
    i.HAL_RCC_EnableCSS                      0x08003eec   Section        0  stm32f1xx_hal_rcc.o(i.HAL_RCC_EnableCSS)
    i.HAL_RCC_GetClockConfig                 0x08003ef8   Section        0  stm32f1xx_hal_rcc.o(i.HAL_RCC_GetClockConfig)
    i.HAL_RCC_GetHCLKFreq                    0x08003f3c   Section        0  stm32f1xx_hal_rcc.o(i.HAL_RCC_GetHCLKFreq)
    i.HAL_RCC_GetOscConfig                   0x08003f48   Section        0  stm32f1xx_hal_rcc.o(i.HAL_RCC_GetOscConfig)
    i.HAL_RCC_GetPCLK1Freq                   0x08004010   Section        0  stm32f1xx_hal_rcc.o(i.HAL_RCC_GetPCLK1Freq)
    i.HAL_RCC_GetPCLK2Freq                   0x08004030   Section        0  stm32f1xx_hal_rcc.o(i.HAL_RCC_GetPCLK2Freq)
    i.HAL_RCC_GetSysClockFreq                0x08004050   Section        0  stm32f1xx_hal_rcc.o(i.HAL_RCC_GetSysClockFreq)
    i.HAL_RCC_MCOConfig                      0x080040c0   Section        0  stm32f1xx_hal_rcc.o(i.HAL_RCC_MCOConfig)
    i.HAL_RCC_NMI_IRQHandler                 0x08004124   Section        0  stm32f1xx_hal_rcc.o(i.HAL_RCC_NMI_IRQHandler)
    i.HAL_RCC_OscConfig                      0x08004144   Section        0  stm32f1xx_hal_rcc.o(i.HAL_RCC_OscConfig)
    i.HAL_ResumeTick                         0x080045a8   Section        0  stm32f1xx_hal.o(i.HAL_ResumeTick)
    i.HAL_SYSTICK_CLKSourceConfig            0x080045ba   Section        0  stm32f1xx_hal_cortex.o(i.HAL_SYSTICK_CLKSourceConfig)
    i.HAL_SYSTICK_Callback                   0x080045e2   Section        0  stm32f1xx_hal_cortex.o(i.HAL_SYSTICK_Callback)
    i.HAL_SYSTICK_Config                     0x080045e4   Section        0  stm32f1xx_hal_cortex.o(i.HAL_SYSTICK_Config)
    i.HAL_SYSTICK_IRQHandler                 0x08004618   Section        0  stm32f1xx_hal_cortex.o(i.HAL_SYSTICK_IRQHandler)
    i.HAL_SetTickFreq                        0x08004620   Section        0  stm32f1xx_hal.o(i.HAL_SetTickFreq)
    i.HAL_SuspendTick                        0x08004650   Section        0  stm32f1xx_hal.o(i.HAL_SuspendTick)
    i.HAL_UARTEx_GetRxEventType              0x08004662   Section        0  stm32f1xx_hal_uart.o(i.HAL_UARTEx_GetRxEventType)
    i.HAL_UARTEx_ReceiveToIdle               0x08004668   Section        0  stm32f1xx_hal_uart.o(i.HAL_UARTEx_ReceiveToIdle)
    i.HAL_UARTEx_ReceiveToIdle_DMA           0x08004790   Section        0  stm32f1xx_hal_uart.o(i.HAL_UARTEx_ReceiveToIdle_DMA)
    i.HAL_UARTEx_ReceiveToIdle_IT            0x08004800   Section        0  stm32f1xx_hal_uart.o(i.HAL_UARTEx_ReceiveToIdle_IT)
    i.HAL_UARTEx_RxEventCallback             0x08004872   Section        0  stm32f1xx_hal_uart.o(i.HAL_UARTEx_RxEventCallback)
    i.HAL_UART_Abort                         0x08004874   Section        0  stm32f1xx_hal_uart.o(i.HAL_UART_Abort)
    i.HAL_UART_AbortCpltCallback             0x0800498a   Section        0  stm32f1xx_hal_uart.o(i.HAL_UART_AbortCpltCallback)
    i.HAL_UART_AbortReceive                  0x0800498c   Section        0  stm32f1xx_hal_uart.o(i.HAL_UART_AbortReceive)
    i.HAL_UART_AbortReceiveCpltCallback      0x08004a4e   Section        0  stm32f1xx_hal_uart.o(i.HAL_UART_AbortReceiveCpltCallback)
    i.HAL_UART_AbortReceive_IT               0x08004a50   Section        0  stm32f1xx_hal_uart.o(i.HAL_UART_AbortReceive_IT)
    i.HAL_UART_AbortTransmit                 0x08004b28   Section        0  stm32f1xx_hal_uart.o(i.HAL_UART_AbortTransmit)
    i.HAL_UART_AbortTransmitCpltCallback     0x08004ba4   Section        0  stm32f1xx_hal_uart.o(i.HAL_UART_AbortTransmitCpltCallback)
    i.HAL_UART_AbortTransmit_IT              0x08004ba8   Section        0  stm32f1xx_hal_uart.o(i.HAL_UART_AbortTransmit_IT)
    i.HAL_UART_Abort_IT                      0x08004c38   Section        0  stm32f1xx_hal_uart.o(i.HAL_UART_Abort_IT)
    i.HAL_UART_DMAPause                      0x08004d80   Section        0  stm32f1xx_hal_uart.o(i.HAL_UART_DMAPause)
    i.HAL_UART_DMAResume                     0x08004e26   Section        0  stm32f1xx_hal_uart.o(i.HAL_UART_DMAResume)
    i.HAL_UART_DMAStop                       0x08004ed0   Section        0  stm32f1xx_hal_uart.o(i.HAL_UART_DMAStop)
    i.HAL_UART_DeInit                        0x08004f5a   Section        0  stm32f1xx_hal_uart.o(i.HAL_UART_DeInit)
    i.HAL_UART_ErrorCallback                 0x08004f98   Section        0  stm32f1xx_hal_uart.o(i.HAL_UART_ErrorCallback)
    i.HAL_UART_GetError                      0x08004f9a   Section        0  stm32f1xx_hal_uart.o(i.HAL_UART_GetError)
    i.HAL_UART_GetState                      0x08004fa0   Section        0  stm32f1xx_hal_uart.o(i.HAL_UART_GetState)
    i.HAL_UART_IRQHandler                    0x08004fb4   Section        0  stm32f1xx_hal_uart.o(i.HAL_UART_IRQHandler)
    i.HAL_UART_Init                          0x08005298   Section        0  stm32f1xx_hal_uart.o(i.HAL_UART_Init)
    i.HAL_UART_MspDeInit                     0x08005310   Section        0  usart.o(i.HAL_UART_MspDeInit)
    i.HAL_UART_MspDeInit                     0x08005340   Section        0  stm32f1xx_hal_uart.o(i.HAL_UART_MspDeInit)
    i.HAL_UART_MspInit                       0x08005344   Section        0  usart.o(i.HAL_UART_MspInit)
    i.HAL_UART_MspInit                       0x080053cc   Section        0  stm32f1xx_hal_uart.o(i.HAL_UART_MspInit)
    i.HAL_UART_Receive                       0x080053ce   Section        0  stm32f1xx_hal_uart.o(i.HAL_UART_Receive)
    i.HAL_UART_Receive_DMA                   0x08005490   Section        0  stm32f1xx_hal_uart.o(i.HAL_UART_Receive_DMA)
    i.HAL_UART_Receive_IT                    0x080054bc   Section        0  stm32f1xx_hal_uart.o(i.HAL_UART_Receive_IT)
    i.HAL_UART_RxCpltCallback                0x080054e8   Section        0  stm32f1xx_hal_uart.o(i.HAL_UART_RxCpltCallback)
    i.HAL_UART_RxHalfCpltCallback            0x080054ea   Section        0  stm32f1xx_hal_uart.o(i.HAL_UART_RxHalfCpltCallback)
    i.HAL_UART_Transmit                      0x080054ec   Section        0  stm32f1xx_hal_uart.o(i.HAL_UART_Transmit)
    i.HAL_UART_Transmit_DMA                  0x080055ac   Section        0  stm32f1xx_hal_uart.o(i.HAL_UART_Transmit_DMA)
    i.HAL_UART_Transmit_IT                   0x08005638   Section        0  stm32f1xx_hal_uart.o(i.HAL_UART_Transmit_IT)
    i.HAL_UART_TxCpltCallback                0x08005670   Section        0  stm32f1xx_hal_uart.o(i.HAL_UART_TxCpltCallback)
    i.HAL_UART_TxHalfCpltCallback            0x08005672   Section        0  stm32f1xx_hal_uart.o(i.HAL_UART_TxHalfCpltCallback)
    i.HardFault_Handler                      0x08005674   Section        0  stm32f1xx_it.o(i.HardFault_Handler)
    i.MX_GPIO_Init                           0x08005678   Section        0  gpio.o(i.MX_GPIO_Init)
    i.MX_USART1_UART_Init                    0x080056d0   Section        0  usart.o(i.MX_USART1_UART_Init)
    i.MemManage_Handler                      0x08005708   Section        0  stm32f1xx_it.o(i.MemManage_Handler)
    i.NMI_Handler                            0x0800570c   Section        0  stm32f1xx_it.o(i.NMI_Handler)
    i.PWR_OverloadWfe                        0x08005710   Section        0  stm32f1xx_hal_pwr.o(i.PWR_OverloadWfe)
    PWR_OverloadWfe                          0x08005711   Thumb Code     6  stm32f1xx_hal_pwr.o(i.PWR_OverloadWfe)
    __tagsym$$noinline                       0x08005711   Number         0  stm32f1xx_hal_pwr.o(i.PWR_OverloadWfe)
    i.PendSV_Handler                         0x08005716   Section        0  stm32f1xx_it.o(i.PendSV_Handler)
    i.RCC_Delay                              0x08005718   Section        0  stm32f1xx_hal_rcc.o(i.RCC_Delay)
    RCC_Delay                                0x08005719   Thumb Code    36  stm32f1xx_hal_rcc.o(i.RCC_Delay)
    i.SVC_Handler                            0x08005740   Section        0  stm32f1xx_it.o(i.SVC_Handler)
    i.SysTick_Handler                        0x08005742   Section        0  stm32f1xx_it.o(i.SysTick_Handler)
    i.SystemClock_Config                     0x0800574a   Section        0  main.o(i.SystemClock_Config)
    i.SystemCoreClockUpdate                  0x080057b0   Section        0  system_stm32f1xx.o(i.SystemCoreClockUpdate)
    i.SystemInit                             0x08005854   Section        0  system_stm32f1xx.o(i.SystemInit)
    i.UART_DMAAbortOnError                   0x08005856   Section        0  stm32f1xx_hal_uart.o(i.UART_DMAAbortOnError)
    UART_DMAAbortOnError                     0x08005857   Thumb Code    20  stm32f1xx_hal_uart.o(i.UART_DMAAbortOnError)
    i.UART_DMAError                          0x0800586a   Section        0  stm32f1xx_hal_uart.o(i.UART_DMAError)
    UART_DMAError                            0x0800586b   Thumb Code    80  stm32f1xx_hal_uart.o(i.UART_DMAError)
    i.UART_DMAReceiveCplt                    0x080058ba   Section        0  stm32f1xx_hal_uart.o(i.UART_DMAReceiveCplt)
    UART_DMAReceiveCplt                      0x080058bb   Thumb Code   180  stm32f1xx_hal_uart.o(i.UART_DMAReceiveCplt)
    i.UART_DMARxAbortCallback                0x0800596e   Section        0  stm32f1xx_hal_uart.o(i.UART_DMARxAbortCallback)
    UART_DMARxAbortCallback                  0x0800596f   Thumb Code    56  stm32f1xx_hal_uart.o(i.UART_DMARxAbortCallback)
    i.UART_DMARxHalfCplt                     0x080059a6   Section        0  stm32f1xx_hal_uart.o(i.UART_DMARxHalfCplt)
    UART_DMARxHalfCplt                       0x080059a7   Thumb Code    36  stm32f1xx_hal_uart.o(i.UART_DMARxHalfCplt)
    i.UART_DMARxOnlyAbortCallback            0x080059ca   Section        0  stm32f1xx_hal_uart.o(i.UART_DMARxOnlyAbortCallback)
    UART_DMARxOnlyAbortCallback              0x080059cb   Thumb Code    28  stm32f1xx_hal_uart.o(i.UART_DMARxOnlyAbortCallback)
    i.UART_DMATransmitCplt                   0x080059e6   Section        0  stm32f1xx_hal_uart.o(i.UART_DMATransmitCplt)
    UART_DMATransmitCplt                     0x080059e7   Thumb Code    88  stm32f1xx_hal_uart.o(i.UART_DMATransmitCplt)
    i.UART_DMATxAbortCallback                0x08005a3e   Section        0  stm32f1xx_hal_uart.o(i.UART_DMATxAbortCallback)
    UART_DMATxAbortCallback                  0x08005a3f   Thumb Code    56  stm32f1xx_hal_uart.o(i.UART_DMATxAbortCallback)
    i.UART_DMATxHalfCplt                     0x08005a76   Section        0  stm32f1xx_hal_uart.o(i.UART_DMATxHalfCplt)
    UART_DMATxHalfCplt                       0x08005a77   Thumb Code    14  stm32f1xx_hal_uart.o(i.UART_DMATxHalfCplt)
    i.UART_DMATxOnlyAbortCallback            0x08005a84   Section        0  stm32f1xx_hal_uart.o(i.UART_DMATxOnlyAbortCallback)
    UART_DMATxOnlyAbortCallback              0x08005a85   Thumb Code    24  stm32f1xx_hal_uart.o(i.UART_DMATxOnlyAbortCallback)
    i.UART_EndRxTransfer                     0x08005a9c   Section        0  stm32f1xx_hal_uart.o(i.UART_EndRxTransfer)
    UART_EndRxTransfer                       0x08005a9d   Thumb Code   108  stm32f1xx_hal_uart.o(i.UART_EndRxTransfer)
    i.UART_EndTransmit_IT                    0x08005b08   Section        0  stm32f1xx_hal_uart.o(i.UART_EndTransmit_IT)
    UART_EndTransmit_IT                      0x08005b09   Thumb Code    32  stm32f1xx_hal_uart.o(i.UART_EndTransmit_IT)
    i.UART_EndTxTransfer                     0x08005b28   Section        0  stm32f1xx_hal_uart.o(i.UART_EndTxTransfer)
    UART_EndTxTransfer                       0x08005b29   Thumb Code    38  stm32f1xx_hal_uart.o(i.UART_EndTxTransfer)
    i.UART_Receive_IT                        0x08005b4e   Section        0  stm32f1xx_hal_uart.o(i.UART_Receive_IT)
    UART_Receive_IT                          0x08005b4f   Thumb Code   252  stm32f1xx_hal_uart.o(i.UART_Receive_IT)
    i.UART_SetConfig                         0x08005c4c   Section        0  stm32f1xx_hal_uart.o(i.UART_SetConfig)
    UART_SetConfig                           0x08005c4d   Thumb Code   248  stm32f1xx_hal_uart.o(i.UART_SetConfig)
    i.UART_Start_Receive_DMA                 0x08005d48   Section        0  stm32f1xx_hal_uart.o(i.UART_Start_Receive_DMA)
    i.UART_Start_Receive_IT                  0x08005e10   Section        0  stm32f1xx_hal_uart.o(i.UART_Start_Receive_IT)
    i.UART_Transmit_IT                       0x08005e50   Section        0  stm32f1xx_hal_uart.o(i.UART_Transmit_IT)
    UART_Transmit_IT                         0x08005e51   Thumb Code    96  stm32f1xx_hal_uart.o(i.UART_Transmit_IT)
    i.UART_WaitOnFlagUntilTimeout            0x08005eb0   Section        0  stm32f1xx_hal_uart.o(i.UART_WaitOnFlagUntilTimeout)
    UART_WaitOnFlagUntilTimeout              0x08005eb1   Thumb Code   140  stm32f1xx_hal_uart.o(i.UART_WaitOnFlagUntilTimeout)
    i.UsageFault_Handler                     0x08005f3c   Section        0  stm32f1xx_it.o(i.UsageFault_Handler)
    i.__0printf$8                            0x08005f40   Section        0  printf8.o(i.__0printf$8)
    i.__NVIC_GetPriorityGrouping             0x08005f60   Section        0  stm32f1xx_hal_cortex.o(i.__NVIC_GetPriorityGrouping)
    __NVIC_GetPriorityGrouping               0x08005f61   Thumb Code    10  stm32f1xx_hal_cortex.o(i.__NVIC_GetPriorityGrouping)
    i.__NVIC_SetPriority                     0x08005f70   Section        0  stm32f1xx_hal_cortex.o(i.__NVIC_SetPriority)
    __NVIC_SetPriority                       0x08005f71   Thumb Code    32  stm32f1xx_hal_cortex.o(i.__NVIC_SetPriority)
    i.__scatterload_copy                     0x08005f98   Section       14  handlers.o(i.__scatterload_copy)
    i.__scatterload_null                     0x08005fa6   Section        2  handlers.o(i.__scatterload_null)
    i.__scatterload_zeroinit                 0x08005fa8   Section       14  handlers.o(i.__scatterload_zeroinit)
    i._printf_core                           0x08005fb8   Section        0  printf8.o(i._printf_core)
    _printf_core                             0x08005fb9   Thumb Code   984  printf8.o(i._printf_core)
    i._printf_post_padding                   0x080063bc   Section        0  printf8.o(i._printf_post_padding)
    _printf_post_padding                     0x080063bd   Thumb Code    36  printf8.o(i._printf_post_padding)
    i._printf_pre_padding                    0x080063e0   Section        0  printf8.o(i._printf_pre_padding)
    _printf_pre_padding                      0x080063e1   Thumb Code    46  printf8.o(i._printf_pre_padding)
    i.back_trace                             0x08006410   Section        0  unwind.o(i.back_trace)
    i.decode_prel31                          0x08006460   Section        0  unwind.o(i.decode_prel31)
    i.fputc                                  0x0800646c   Section        0  usart.o(i.fputc)
    i.free                                   0x0800648c   Section        0  malloc.o(i.free)
    i.main                                   0x080064dc   Section        0  main.o(i.main)
    i.malloc                                 0x08006504   Section        0  malloc.o(i.malloc)
    i.search_index                           0x08006570   Section        0  unwind.o(i.search_index)
    search_index                             0x08006571   Thumb Code    76  unwind.o(i.search_index)
    i.show_unwind_info                       0x080065bc   Section        0  unwind.o(i.show_unwind_info)
    i.test_a                                 0x08006688   Section        0  main.o(i.test_a)
    i.test_b                                 0x080066a8   Section        0  main.o(i.test_b)
    i.test_c                                 0x080066bc   Section        0  main.o(i.test_c)
    i.unwind_decode_uleb128                  0x080066ce   Section        0  unwind.o(i.unwind_decode_uleb128)
    unwind_decode_uleb128                    0x080066cf   Thumb Code    50  unwind.o(i.unwind_decode_uleb128)
    i.unwind_exec_insn                       0x08006700   Section        0  unwind.o(i.unwind_exec_insn)
    unwind_exec_insn                         0x08006701   Thumb Code   314  unwind.o(i.unwind_exec_insn)
    i.unwind_exec_pop_r4_to_rN               0x080068f4   Section        0  unwind.o(i.unwind_exec_pop_r4_to_rN)
    unwind_exec_pop_r4_to_rN                 0x080068f5   Thumb Code    76  unwind.o(i.unwind_exec_pop_r4_to_rN)
    i.unwind_exec_pop_subset_r0_to_r3        0x08006940   Section        0  unwind.o(i.unwind_exec_pop_subset_r0_to_r3)
    unwind_exec_pop_subset_r0_to_r3          0x08006941   Thumb Code    54  unwind.o(i.unwind_exec_pop_subset_r0_to_r3)
    i.unwind_exec_pop_subset_r4_to_r13       0x08006976   Section        0  unwind.o(i.unwind_exec_pop_subset_r4_to_r13)
    unwind_exec_pop_subset_r4_to_r13         0x08006977   Thumb Code    60  unwind.o(i.unwind_exec_pop_subset_r4_to_r13)
    i.unwind_find_idx                        0x080069b4   Section        0  unwind.o(i.unwind_find_idx)
    unwind_find_idx                          0x080069b5   Thumb Code    50  unwind.o(i.unwind_find_idx)
    i.unwind_find_origin                     0x080069f4   Section        0  unwind.o(i.unwind_find_origin)
    unwind_find_origin                       0x080069f5   Thumb Code    38  unwind.o(i.unwind_find_origin)
    i.unwind_frame                           0x08006a1c   Section        0  unwind.o(i.unwind_frame)
    i.unwind_get_byte                        0x08006bd4   Section        0  unwind.o(i.unwind_get_byte)
    unwind_get_byte                          0x08006bd5   Thumb Code    66  unwind.o(i.unwind_get_byte)
    i.unwind_pop_register                    0x08006c38   Section        0  unwind.o(i.unwind_pop_register)
    unwind_pop_register                      0x08006c39   Thumb Code    48  unwind.o(i.unwind_pop_register)
    .extab.HAL_NVIC_SetPriority              0x08006c68   Data           0  stm32f1xx_hal_cortex.o(.ARM.extab)
    .constdata                               0x08006c74   Section       17  unwind.o(.constdata)
    __func__                                 0x08006c74   Data          17  unwind.o(.constdata)
    .constdata                               0x08006c85   Section       18  stm32f1xx_hal_rcc.o(.constdata)
    aPLLMULFactorTable                       0x08006c85   Data          16  stm32f1xx_hal_rcc.o(.constdata)
    aPredivFactorTable                       0x08006c95   Data           2  stm32f1xx_hal_rcc.o(.constdata)
    .constdata                               0x08006c97   Section       18  stm32f1xx_hal_rcc_ex.o(.constdata)
    aPLLMULFactorTable                       0x08006c97   Data          16  stm32f1xx_hal_rcc_ex.o(.constdata)
    aPredivFactorTable                       0x08006ca7   Data           2  stm32f1xx_hal_rcc_ex.o(.constdata)
    .constdata                               0x08006ca9   Section       24  system_stm32f1xx.o(.constdata)
    .conststring                             0x08006cc4   Section       66  unwind.o(.conststring)
    .data                                    0x20000000   Section       12  unwind.o(.data)
    __origin_unwind_idx                      0x20000008   Data           4  unwind.o(.data)
    .data                                    0x2000000c   Section        9  stm32f1xx_hal.o(.data)
    .data                                    0x20000018   Section        4  system_stm32f1xx.o(.data)
    .data                                    0x2000001c   Section        4  stdout.o(.data)
    .data                                    0x20000020   Section        4  mvars.o(.data)
    .data                                    0x20000024   Section        4  mvars.o(.data)
    .bss                                     0x20000028   Section       72  usart.o(.bss)
    .bss                                     0x20000070   Section       32  stm32f1xx_hal_flash.o(.bss)
    HEAP                                     0x20000090   Section      512  startup_stm32f103xe.o(HEAP)
    STACK                                    0x20000290   Section     1024  startup_stm32f103xe.o(STACK)

    Global Symbols

    Symbol Name                              Value     Ov Type        Size  Object(Section)

    BuildAttributes$$THM_ISAv4$P$D$K$B$S$PE$A:L22UL41UL21$X:L11$S22US41US21$IEEE1$IW$USESV6$~STKCKD$USESV7$~SHL$OSPACE$ROPI$EBA8$UX$MICROLIB$REQ8$PRES8$EABIv2 0x00000000   Number         0  anon$$obj.o ABSOLUTE
    __ARM_use_no_argv                        0x00000000   Number         0  main.o ABSOLUTE
    _printf_a                                0x00000000   Number         0  stubs.o ABSOLUTE
    _printf_c                                0x00000000   Number         0  stubs.o ABSOLUTE
    _printf_charcount                        0x00000000   Number         0  stubs.o ABSOLUTE
    _printf_d                                0x00000000   Number         0  stubs.o ABSOLUTE
    _printf_e                                0x00000000   Number         0  stubs.o ABSOLUTE
    _printf_f                                0x00000000   Number         0  stubs.o ABSOLUTE
    _printf_flags                            0x00000000   Number         0  stubs.o ABSOLUTE
    _printf_fp_dec                           0x00000000   Number         0  stubs.o ABSOLUTE
    _printf_fp_hex                           0x00000000   Number         0  stubs.o ABSOLUTE
    _printf_g                                0x00000000   Number         0  stubs.o ABSOLUTE
    _printf_i                                0x00000000   Number         0  stubs.o ABSOLUTE
    _printf_int_dec                          0x00000000   Number         0  stubs.o ABSOLUTE
    _printf_l                                0x00000000   Number         0  stubs.o ABSOLUTE
    _printf_lc                               0x00000000   Number         0  stubs.o ABSOLUTE
    _printf_ll                               0x00000000   Number         0  stubs.o ABSOLUTE
    _printf_lld                              0x00000000   Number         0  stubs.o ABSOLUTE
    _printf_lli                              0x00000000   Number         0  stubs.o ABSOLUTE
    _printf_llo                              0x00000000   Number         0  stubs.o ABSOLUTE
    _printf_llu                              0x00000000   Number         0  stubs.o ABSOLUTE
    _printf_llx                              0x00000000   Number         0  stubs.o ABSOLUTE
    _printf_longlong_dec                     0x00000000   Number         0  stubs.o ABSOLUTE
    _printf_longlong_hex                     0x00000000   Number         0  stubs.o ABSOLUTE
    _printf_longlong_oct                     0x00000000   Number         0  stubs.o ABSOLUTE
    _printf_ls                               0x00000000   Number         0  stubs.o ABSOLUTE
    _printf_mbtowc                           0x00000000   Number         0  stubs.o ABSOLUTE
    _printf_n                                0x00000000   Number         0  stubs.o ABSOLUTE
    _printf_o                                0x00000000   Number         0  stubs.o ABSOLUTE
    _printf_p                                0x00000000   Number         0  stubs.o ABSOLUTE
    _printf_percent                          0x00000000   Number         0  stubs.o ABSOLUTE
    _printf_pre_padding                      0x00000000   Number         0  stubs.o ABSOLUTE
    _printf_return_value                     0x00000000   Number         0  stubs.o ABSOLUTE
    _printf_s                                0x00000000   Number         0  stubs.o ABSOLUTE
    _printf_sizespec                         0x00000000   Number         0  stubs.o ABSOLUTE
    _printf_str                              0x00000000   Number         0  stubs.o ABSOLUTE
    _printf_truncate_signed                  0x00000000   Number         0  stubs.o ABSOLUTE
    _printf_truncate_unsigned                0x00000000   Number         0  stubs.o ABSOLUTE
    _printf_u                                0x00000000   Number         0  stubs.o ABSOLUTE
    _printf_wc                               0x00000000   Number         0  stubs.o ABSOLUTE
    _printf_wctomb                           0x00000000   Number         0  stubs.o ABSOLUTE
    _printf_widthprec                        0x00000000   Number         0  stubs.o ABSOLUTE
    _printf_x                                0x00000000   Number         0  stubs.o ABSOLUTE
    __aeabi_unwind_cpp_pr2                    - Undefined Weak Reference
    __arm_fini_                               - Undefined Weak Reference
    __cpp_initialize__aeabi_                  - Undefined Weak Reference
    __cxa_begin_cleanup                       - Undefined Weak Reference
    __cxa_call_unexpected                     - Undefined Weak Reference
    __cxa_finalize                            - Undefined Weak Reference
    __cxa_type_match                          - Undefined Weak Reference
    __decompress                              - Undefined Weak Reference
    _clock_init                               - Undefined Weak Reference
    _microlib_exit                            - Undefined Weak Reference
    __Vectors_Size                           0x00000130   Number         0  startup_stm32f103xe.o ABSOLUTE
    Image$$ER_EXIDX$$Length                  0x00000498   Number         0  anon$$obj.o ABSOLUTE
    __Vectors                                0x08000000   Data           4  startup_stm32f103xe.o(RESET)
    __Vectors_End                            0x08000130   Data           0  startup_stm32f103xe.o(RESET)
    __main                                   0x08000131   Thumb Code     0  entry.o(.ARM.Collect$$$$00000000)
    _main_stk                                0x08000131   Thumb Code     0  entry2.o(.ARM.Collect$$$$00000001)
    _main_scatterload                        0x08000135   Thumb Code     0  entry5.o(.ARM.Collect$$$$00000004)
    __main_after_scatterload                 0x08000139   Thumb Code     0  entry5.o(.ARM.Collect$$$$00000004)
    _main_clock                              0x08000139   Thumb Code     0  entry7b.o(.ARM.Collect$$$$00000008)
    _main_cpp_init                           0x08000139   Thumb Code     0  entry8b.o(.ARM.Collect$$$$0000000A)
    _main_init                               0x08000139   Thumb Code     0  entry9a.o(.ARM.Collect$$$$0000000B)
    __rt_lib_shutdown_fini                   0x08000141   Thumb Code     0  entry12b.o(.ARM.Collect$$$$0000000E)
    __rt_final_cpp                           0x08000145   Thumb Code     0  entry10a.o(.ARM.Collect$$$$0000000F)
    __rt_final_exit                          0x08000145   Thumb Code     0  entry11a.o(.ARM.Collect$$$$00000011)
    __ARM_Unwind_VRS_VFPpreserve_low         0x08000149   Thumb Code     6  unwinder.o(.emb_text)
    __ARM_Unwind_VRS_VFPpreserve_high        0x0800014f   Thumb Code     6  unwinder.o(.emb_text)
    __ARM_Unwind_VRS_VFPrestore_low          0x08000155   Thumb Code     6  unwinder.o(.emb_text)
    __ARM_Unwind_VRS_VFPrestore_high         0x0800015b   Thumb Code     6  unwinder.o(.emb_text)
    __ARM_Unwind_VRS_corerestore             0x08000161   Thumb Code    26  unwinder.o(.emb_text)
    _Unwind_RaiseException                   0x0800017b   Thumb Code    46  unwinder.o(.emb_text)
    __ARM_ETInfo                             0x080001a0   Data           0  unwinder.o(.emb_text)
    _Unwind_Resume                           0x080001a9   Thumb Code    28  unwinder.o(.emb_text)
    _Unwind_Activity                         0x080001c5   Thumb Code     4  unwind_activity.o(.emb_text)
    __asm___6_main_c_test_a____REV16         0x080001c9   Thumb Code     4  main.o(.rev16_text)
    __asm___6_gpio_c_62724882____REV16       0x080001cd   Thumb Code     4  gpio.o(.rev16_text)
    __asm___7_usart_c_aa2567c7____REV16      0x080001d1   Thumb Code     4  usart.o(.rev16_text)
    __asm___14_stm32f1xx_it_c_bb8ca80c____REV16 0x080001d5   Thumb Code     4  stm32f1xx_it.o(.rev16_text)
    __asm___19_stm32f1xx_hal_msp_c_d46e2bee____REV16 0x080001d9   Thumb Code     4  stm32f1xx_hal_msp.o(.rev16_text)
    __asm___23_stm32f1xx_hal_gpio_ex_c_61b0f410____REV16 0x080001dd   Thumb Code     4  stm32f1xx_hal_gpio_ex.o(.rev16_text)
    __asm___19_stm32f1xx_hal_tim_c____REV16  0x080001e1   Thumb Code     4  stm32f1xx_hal_tim.o(.rev16_text)
    __asm___22_stm32f1xx_hal_tim_ex_c____REV16 0x080001e5   Thumb Code     4  stm32f1xx_hal_tim_ex.o(.rev16_text)
    __asm___20_stm32f1xx_hal_uart_c_d497114f____REV16 0x080001e9   Thumb Code     4  stm32f1xx_hal_uart.o(.rev16_text)
    __asm___15_stm32f1xx_hal_c_3da258af____REV16 0x080001ed   Thumb Code     4  stm32f1xx_hal.o(.rev16_text)
    __asm___19_stm32f1xx_hal_rcc_c_b7071a4b____REV16 0x080001f1   Thumb Code     4  stm32f1xx_hal_rcc.o(.rev16_text)
    __asm___22_stm32f1xx_hal_rcc_ex_c_bed13b44____REV16 0x080001f5   Thumb Code     4  stm32f1xx_hal_rcc_ex.o(.rev16_text)
    __asm___20_stm32f1xx_hal_gpio_c_ea787061____REV16 0x080001f9   Thumb Code     4  stm32f1xx_hal_gpio.o(.rev16_text)
    __asm___19_stm32f1xx_hal_dma_c_c25f65ec____REV16 0x080001fd   Thumb Code     4  stm32f1xx_hal_dma.o(.rev16_text)
    __asm___22_stm32f1xx_hal_cortex_c_2992dbc0____REV16 0x08000201   Thumb Code     4  stm32f1xx_hal_cortex.o(.rev16_text)
    __asm___19_stm32f1xx_hal_pwr_c_f2cfe8be____REV16 0x08000205   Thumb Code     4  stm32f1xx_hal_pwr.o(.rev16_text)
    __asm___21_stm32f1xx_hal_flash_c_48aa8f3e____REV16 0x08000209   Thumb Code     4  stm32f1xx_hal_flash.o(.rev16_text)
    __asm___24_stm32f1xx_hal_flash_ex_c_6648b60e____REV16 0x0800020d   Thumb Code     4  stm32f1xx_hal_flash_ex.o(.rev16_text)
    __asm___20_stm32f1xx_hal_exti_c_ad9bfa1e____REV16 0x08000211   Thumb Code     4  stm32f1xx_hal_exti.o(.rev16_text)
    __asm___18_system_stm32f1xx_c_5d646a67____REV16 0x08000215   Thumb Code     4  system_stm32f1xx.o(.rev16_text)
    __asm___6_main_c_test_a____REVSH         0x08000219   Thumb Code     4  main.o(.revsh_text)
    __asm___6_gpio_c_62724882____REVSH       0x0800021d   Thumb Code     4  gpio.o(.revsh_text)
    __asm___7_usart_c_aa2567c7____REVSH      0x08000221   Thumb Code     4  usart.o(.revsh_text)
    __asm___14_stm32f1xx_it_c_bb8ca80c____REVSH 0x08000225   Thumb Code     4  stm32f1xx_it.o(.revsh_text)
    __asm___19_stm32f1xx_hal_msp_c_d46e2bee____REVSH 0x08000229   Thumb Code     4  stm32f1xx_hal_msp.o(.revsh_text)
    __asm___23_stm32f1xx_hal_gpio_ex_c_61b0f410____REVSH 0x0800022d   Thumb Code     4  stm32f1xx_hal_gpio_ex.o(.revsh_text)
    __asm___19_stm32f1xx_hal_tim_c____REVSH  0x08000231   Thumb Code     4  stm32f1xx_hal_tim.o(.revsh_text)
    __asm___22_stm32f1xx_hal_tim_ex_c____REVSH 0x08000235   Thumb Code     4  stm32f1xx_hal_tim_ex.o(.revsh_text)
    __asm___20_stm32f1xx_hal_uart_c_d497114f____REVSH 0x08000239   Thumb Code     4  stm32f1xx_hal_uart.o(.revsh_text)
    __asm___15_stm32f1xx_hal_c_3da258af____REVSH 0x0800023d   Thumb Code     4  stm32f1xx_hal.o(.revsh_text)
    __asm___19_stm32f1xx_hal_rcc_c_b7071a4b____REVSH 0x08000241   Thumb Code     4  stm32f1xx_hal_rcc.o(.revsh_text)
    __asm___22_stm32f1xx_hal_rcc_ex_c_bed13b44____REVSH 0x08000245   Thumb Code     4  stm32f1xx_hal_rcc_ex.o(.revsh_text)
    __asm___20_stm32f1xx_hal_gpio_c_ea787061____REVSH 0x08000249   Thumb Code     4  stm32f1xx_hal_gpio.o(.revsh_text)
    __asm___19_stm32f1xx_hal_dma_c_c25f65ec____REVSH 0x0800024d   Thumb Code     4  stm32f1xx_hal_dma.o(.revsh_text)
    __asm___22_stm32f1xx_hal_cortex_c_2992dbc0____REVSH 0x08000251   Thumb Code     4  stm32f1xx_hal_cortex.o(.revsh_text)
    __asm___19_stm32f1xx_hal_pwr_c_f2cfe8be____REVSH 0x08000255   Thumb Code     4  stm32f1xx_hal_pwr.o(.revsh_text)
    __asm___21_stm32f1xx_hal_flash_c_48aa8f3e____REVSH 0x08000259   Thumb Code     4  stm32f1xx_hal_flash.o(.revsh_text)
    __asm___24_stm32f1xx_hal_flash_ex_c_6648b60e____REVSH 0x0800025d   Thumb Code     4  stm32f1xx_hal_flash_ex.o(.revsh_text)
    __asm___20_stm32f1xx_hal_exti_c_ad9bfa1e____REVSH 0x08000261   Thumb Code     4  stm32f1xx_hal_exti.o(.revsh_text)
    __asm___18_system_stm32f1xx_c_5d646a67____REVSH 0x08000265   Thumb Code     4  system_stm32f1xx.o(.revsh_text)
    __asm___6_main_c_test_a____RRX           0x08000269   Thumb Code     6  main.o(.rrx_text)
    __asm___6_gpio_c_62724882____RRX         0x08000271   Thumb Code     6  gpio.o(.rrx_text)
    __asm___7_usart_c_aa2567c7____RRX        0x08000279   Thumb Code     6  usart.o(.rrx_text)
    __asm___14_stm32f1xx_it_c_bb8ca80c____RRX 0x08000281   Thumb Code     6  stm32f1xx_it.o(.rrx_text)
    __asm___19_stm32f1xx_hal_msp_c_d46e2bee____RRX 0x08000289   Thumb Code     6  stm32f1xx_hal_msp.o(.rrx_text)
    __asm___23_stm32f1xx_hal_gpio_ex_c_61b0f410____RRX 0x08000291   Thumb Code     6  stm32f1xx_hal_gpio_ex.o(.rrx_text)
    __asm___19_stm32f1xx_hal_tim_c____RRX    0x08000299   Thumb Code     6  stm32f1xx_hal_tim.o(.rrx_text)
    __asm___22_stm32f1xx_hal_tim_ex_c____RRX 0x080002a1   Thumb Code     6  stm32f1xx_hal_tim_ex.o(.rrx_text)
    __asm___20_stm32f1xx_hal_uart_c_d497114f____RRX 0x080002a9   Thumb Code     6  stm32f1xx_hal_uart.o(.rrx_text)
    __asm___15_stm32f1xx_hal_c_3da258af____RRX 0x080002b1   Thumb Code     6  stm32f1xx_hal.o(.rrx_text)
    __asm___19_stm32f1xx_hal_rcc_c_b7071a4b____RRX 0x080002b9   Thumb Code     6  stm32f1xx_hal_rcc.o(.rrx_text)
    __asm___22_stm32f1xx_hal_rcc_ex_c_bed13b44____RRX 0x080002c1   Thumb Code     6  stm32f1xx_hal_rcc_ex.o(.rrx_text)
    __asm___20_stm32f1xx_hal_gpio_c_ea787061____RRX 0x080002c9   Thumb Code     6  stm32f1xx_hal_gpio.o(.rrx_text)
    __asm___19_stm32f1xx_hal_dma_c_c25f65ec____RRX 0x080002d1   Thumb Code     6  stm32f1xx_hal_dma.o(.rrx_text)
    __asm___22_stm32f1xx_hal_cortex_c_2992dbc0____RRX 0x080002d9   Thumb Code     6  stm32f1xx_hal_cortex.o(.rrx_text)
    __asm___19_stm32f1xx_hal_pwr_c_f2cfe8be____RRX 0x080002e1   Thumb Code     6  stm32f1xx_hal_pwr.o(.rrx_text)
    __asm___21_stm32f1xx_hal_flash_c_48aa8f3e____RRX 0x080002e9   Thumb Code     6  stm32f1xx_hal_flash.o(.rrx_text)
    __asm___24_stm32f1xx_hal_flash_ex_c_6648b60e____RRX 0x080002f1   Thumb Code     6  stm32f1xx_hal_flash_ex.o(.rrx_text)
    __asm___20_stm32f1xx_hal_exti_c_ad9bfa1e____RRX 0x080002f9   Thumb Code     6  stm32f1xx_hal_exti.o(.rrx_text)
    __asm___18_system_stm32f1xx_c_5d646a67____RRX 0x08000301   Thumb Code     6  system_stm32f1xx.o(.rrx_text)
    Reset_Handler                            0x08000309   Thumb Code     8  startup_stm32f103xe.o(.text)
    ADC1_2_IRQHandler                        0x08000323   Thumb Code     0  startup_stm32f103xe.o(.text)
    ADC3_IRQHandler                          0x08000323   Thumb Code     0  startup_stm32f103xe.o(.text)
    CAN1_RX1_IRQHandler                      0x08000323   Thumb Code     0  startup_stm32f103xe.o(.text)
    CAN1_SCE_IRQHandler                      0x08000323   Thumb Code     0  startup_stm32f103xe.o(.text)
    DMA1_Channel1_IRQHandler                 0x08000323   Thumb Code     0  startup_stm32f103xe.o(.text)
    DMA1_Channel2_IRQHandler                 0x08000323   Thumb Code     0  startup_stm32f103xe.o(.text)
    DMA1_Channel3_IRQHandler                 0x08000323   Thumb Code     0  startup_stm32f103xe.o(.text)
    DMA1_Channel4_IRQHandler                 0x08000323   Thumb Code     0  startup_stm32f103xe.o(.text)
    DMA1_Channel5_IRQHandler                 0x08000323   Thumb Code     0  startup_stm32f103xe.o(.text)
    DMA1_Channel6_IRQHandler                 0x08000323   Thumb Code     0  startup_stm32f103xe.o(.text)
    DMA1_Channel7_IRQHandler                 0x08000323   Thumb Code     0  startup_stm32f103xe.o(.text)
    DMA2_Channel1_IRQHandler                 0x08000323   Thumb Code     0  startup_stm32f103xe.o(.text)
    DMA2_Channel2_IRQHandler                 0x08000323   Thumb Code     0  startup_stm32f103xe.o(.text)
    DMA2_Channel3_IRQHandler                 0x08000323   Thumb Code     0  startup_stm32f103xe.o(.text)
    DMA2_Channel4_5_IRQHandler               0x08000323   Thumb Code     0  startup_stm32f103xe.o(.text)
    EXTI0_IRQHandler                         0x08000323   Thumb Code     0  startup_stm32f103xe.o(.text)
    EXTI15_10_IRQHandler                     0x08000323   Thumb Code     0  startup_stm32f103xe.o(.text)
    EXTI1_IRQHandler                         0x08000323   Thumb Code     0  startup_stm32f103xe.o(.text)
    EXTI2_IRQHandler                         0x08000323   Thumb Code     0  startup_stm32f103xe.o(.text)
    EXTI3_IRQHandler                         0x08000323   Thumb Code     0  startup_stm32f103xe.o(.text)
    EXTI4_IRQHandler                         0x08000323   Thumb Code     0  startup_stm32f103xe.o(.text)
    EXTI9_5_IRQHandler                       0x08000323   Thumb Code     0  startup_stm32f103xe.o(.text)
    FLASH_IRQHandler                         0x08000323   Thumb Code     0  startup_stm32f103xe.o(.text)
    FSMC_IRQHandler                          0x08000323   Thumb Code     0  startup_stm32f103xe.o(.text)
    I2C1_ER_IRQHandler                       0x08000323   Thumb Code     0  startup_stm32f103xe.o(.text)
    I2C1_EV_IRQHandler                       0x08000323   Thumb Code     0  startup_stm32f103xe.o(.text)
    I2C2_ER_IRQHandler                       0x08000323   Thumb Code     0  startup_stm32f103xe.o(.text)
    I2C2_EV_IRQHandler                       0x08000323   Thumb Code     0  startup_stm32f103xe.o(.text)
    PVD_IRQHandler                           0x08000323   Thumb Code     0  startup_stm32f103xe.o(.text)
    RCC_IRQHandler                           0x08000323   Thumb Code     0  startup_stm32f103xe.o(.text)
    RTC_Alarm_IRQHandler                     0x08000323   Thumb Code     0  startup_stm32f103xe.o(.text)
    RTC_IRQHandler                           0x08000323   Thumb Code     0  startup_stm32f103xe.o(.text)
    SDIO_IRQHandler                          0x08000323   Thumb Code     0  startup_stm32f103xe.o(.text)
    SPI1_IRQHandler                          0x08000323   Thumb Code     0  startup_stm32f103xe.o(.text)
    SPI2_IRQHandler                          0x08000323   Thumb Code     0  startup_stm32f103xe.o(.text)
    SPI3_IRQHandler                          0x08000323   Thumb Code     0  startup_stm32f103xe.o(.text)
    TAMPER_IRQHandler                        0x08000323   Thumb Code     0  startup_stm32f103xe.o(.text)
    TIM1_BRK_IRQHandler                      0x08000323   Thumb Code     0  startup_stm32f103xe.o(.text)
    TIM1_CC_IRQHandler                       0x08000323   Thumb Code     0  startup_stm32f103xe.o(.text)
    TIM1_TRG_COM_IRQHandler                  0x08000323   Thumb Code     0  startup_stm32f103xe.o(.text)
    TIM1_UP_IRQHandler                       0x08000323   Thumb Code     0  startup_stm32f103xe.o(.text)
    TIM2_IRQHandler                          0x08000323   Thumb Code     0  startup_stm32f103xe.o(.text)
    TIM3_IRQHandler                          0x08000323   Thumb Code     0  startup_stm32f103xe.o(.text)
    TIM4_IRQHandler                          0x08000323   Thumb Code     0  startup_stm32f103xe.o(.text)
    TIM5_IRQHandler                          0x08000323   Thumb Code     0  startup_stm32f103xe.o(.text)
    TIM6_IRQHandler                          0x08000323   Thumb Code     0  startup_stm32f103xe.o(.text)
    TIM7_IRQHandler                          0x08000323   Thumb Code     0  startup_stm32f103xe.o(.text)
    TIM8_BRK_IRQHandler                      0x08000323   Thumb Code     0  startup_stm32f103xe.o(.text)
    TIM8_CC_IRQHandler                       0x08000323   Thumb Code     0  startup_stm32f103xe.o(.text)
    TIM8_TRG_COM_IRQHandler                  0x08000323   Thumb Code     0  startup_stm32f103xe.o(.text)
    TIM8_UP_IRQHandler                       0x08000323   Thumb Code     0  startup_stm32f103xe.o(.text)
    UART4_IRQHandler                         0x08000323   Thumb Code     0  startup_stm32f103xe.o(.text)
    UART5_IRQHandler                         0x08000323   Thumb Code     0  startup_stm32f103xe.o(.text)
    USART1_IRQHandler                        0x08000323   Thumb Code     0  startup_stm32f103xe.o(.text)
    USART2_IRQHandler                        0x08000323   Thumb Code     0  startup_stm32f103xe.o(.text)
    USART3_IRQHandler                        0x08000323   Thumb Code     0  startup_stm32f103xe.o(.text)
    USBWakeUp_IRQHandler                     0x08000323   Thumb Code     0  startup_stm32f103xe.o(.text)
    USB_HP_CAN1_TX_IRQHandler                0x08000323   Thumb Code     0  startup_stm32f103xe.o(.text)
    USB_LP_CAN1_RX0_IRQHandler               0x08000323   Thumb Code     0  startup_stm32f103xe.o(.text)
    WWDG_IRQHandler                          0x08000323   Thumb Code     0  startup_stm32f103xe.o(.text)
    __aeabi_unwind_cpp_pr1                   0x0800032d   Thumb Code     6  unwind_pr1.o(.text)
    __aeabi_unwind_cpp_pr0                   0x08000333   Thumb Code     6  unwind_pr0.o(.text)
    __aeabi_llsr                             0x08000339   Thumb Code    32  llushr.o(.text)
    _ll_ushift_r                             0x08000339   Thumb Code     0  llushr.o(.text)
    __aeabi_memset                           0x08000359   Thumb Code    14  memseta.o(.text)
    __aeabi_memset4                          0x08000359   Thumb Code     0  memseta.o(.text)
    __aeabi_memset8                          0x08000359   Thumb Code     0  memseta.o(.text)
    __aeabi_memclr                           0x08000367   Thumb Code     4  memseta.o(.text)
    __aeabi_memclr4                          0x08000367   Thumb Code     0  memseta.o(.text)
    __aeabi_memclr8                          0x08000367   Thumb Code     0  memseta.o(.text)
    _memset$wrapper                          0x0800036b   Thumb Code    18  memseta.o(.text)
    __ARM_unwind_cpp_prcommon                0x080003ad   Thumb Code  1472  unwind_prcommon.o(.text)
    __aeabi_uldivmod                         0x08000971   Thumb Code    98  uldiv.o(.text)
    _Unwind_VRS_Set                          0x080009d5   Thumb Code    46  unwinder.o(.text)
    _Unwind_VRS_Get                          0x08000a03   Thumb Code    46  unwinder.o(.text)
    _Unwind_VRS_Pop                          0x08000a31   Thumb Code   272  unwinder.o(.text)
    __ARM_unwind_next_frame                  0x08000c19   Thumb Code    46  unwinder.o(.text)
    __ARM_Unwind_RaiseException              0x08000c47   Thumb Code   206  unwinder.o(.text)
    __ARM_Unwind_Resume                      0x08000d15   Thumb Code    44  unwinder.o(.text)
    _Unwind_Complete                         0x08000d41   Thumb Code    72  unwinder.o(.text)
    __scatterload                            0x08000da1   Thumb Code    28  init.o(.text)
    __scatterload_rt2                        0x08000da1   Thumb Code     0  init.o(.text)
    __aeabi_llsl                             0x08000dc5   Thumb Code    30  llshl.o(.text)
    _ll_shift_l                              0x08000dc5   Thumb Code     0  llshl.o(.text)
    bsearch                                  0x08000de3   Thumb Code    70  bsearch.o(.text)
    __aeabi_memcpy                           0x08000e29   Thumb Code    36  memcpya.o(.text)
    __aeabi_memcpy4                          0x08000e29   Thumb Code     0  memcpya.o(.text)
    __aeabi_memcpy8                          0x08000e29   Thumb Code     0  memcpya.o(.text)
    BusFault_Handler                         0x08000e4d   Thumb Code     4  stm32f1xx_it.o(i.BusFault_Handler)
    DebugMon_Handler                         0x08000e7d   Thumb Code     2  stm32f1xx_it.o(i.DebugMon_Handler)
    Error_Handler                            0x08000e7f   Thumb Code     6  main.o(i.Error_Handler)
    FLASH_PageErase                          0x080011d5   Thumb Code    32  stm32f1xx_hal_flash_ex.o(i.FLASH_PageErase)
    FLASH_WaitForLastOperation               0x080012a1   Thumb Code   106  stm32f1xx_hal_flash.o(i.FLASH_WaitForLastOperation)
    HAL_DBGMCU_DisableDBGSleepMode           0x08001311   Thumb Code    14  stm32f1xx_hal.o(i.HAL_DBGMCU_DisableDBGSleepMode)
    HAL_DBGMCU_DisableDBGStandbyMode         0x08001325   Thumb Code    14  stm32f1xx_hal.o(i.HAL_DBGMCU_DisableDBGStandbyMode)
    HAL_DBGMCU_DisableDBGStopMode            0x08001339   Thumb Code    14  stm32f1xx_hal.o(i.HAL_DBGMCU_DisableDBGStopMode)
    HAL_DBGMCU_EnableDBGSleepMode            0x0800134d   Thumb Code    14  stm32f1xx_hal.o(i.HAL_DBGMCU_EnableDBGSleepMode)
    HAL_DBGMCU_EnableDBGStandbyMode          0x08001361   Thumb Code    14  stm32f1xx_hal.o(i.HAL_DBGMCU_EnableDBGStandbyMode)
    HAL_DBGMCU_EnableDBGStopMode             0x08001375   Thumb Code    14  stm32f1xx_hal.o(i.HAL_DBGMCU_EnableDBGStopMode)
    HAL_DMA_Abort                            0x08001389   Thumb Code    86  stm32f1xx_hal_dma.o(i.HAL_DMA_Abort)
    HAL_DMA_Abort_IT                         0x080013e1   Thumb Code   414  stm32f1xx_hal_dma.o(i.HAL_DMA_Abort_IT)
    HAL_DMA_DeInit                           0x08001589   Thumb Code   132  stm32f1xx_hal_dma.o(i.HAL_DMA_DeInit)
    HAL_DMA_GetError                         0x08001615   Thumb Code     6  stm32f1xx_hal_dma.o(i.HAL_DMA_GetError)
    HAL_DMA_GetState                         0x0800161b   Thumb Code     8  stm32f1xx_hal_dma.o(i.HAL_DMA_GetState)
    HAL_DMA_IRQHandler                       0x08001625   Thumb Code   910  stm32f1xx_hal_dma.o(i.HAL_DMA_IRQHandler)
    HAL_DMA_Init                             0x080019bd   Thumb Code   132  stm32f1xx_hal_dma.o(i.HAL_DMA_Init)
    HAL_DMA_PollForTransfer                  0x08001a49   Thumb Code  1612  stm32f1xx_hal_dma.o(i.HAL_DMA_PollForTransfer)
    HAL_DMA_RegisterCallback                 0x0800209d   Thumb Code    90  stm32f1xx_hal_dma.o(i.HAL_DMA_RegisterCallback)
    HAL_DMA_Start                            0x080020f7   Thumb Code   114  stm32f1xx_hal_dma.o(i.HAL_DMA_Start)
    HAL_DMA_Start_IT                         0x08002169   Thumb Code   156  stm32f1xx_hal_dma.o(i.HAL_DMA_Start_IT)
    HAL_DMA_UnRegisterCallback               0x08002205   Thumb Code   106  stm32f1xx_hal_dma.o(i.HAL_DMA_UnRegisterCallback)
    HAL_DeInit                               0x08002271   Thumb Code    30  stm32f1xx_hal.o(i.HAL_DeInit)
    HAL_Delay                                0x08002295   Thumb Code    36  stm32f1xx_hal.o(i.HAL_Delay)
    HAL_EXTI_ClearConfigLine                 0x080022bd   Thumb Code   112  stm32f1xx_hal_exti.o(i.HAL_EXTI_ClearConfigLine)
    HAL_EXTI_ClearPending                    0x08002335   Thumb Code    22  stm32f1xx_hal_exti.o(i.HAL_EXTI_ClearPending)
    HAL_EXTI_GenerateSWI                     0x08002351   Thumb Code    18  stm32f1xx_hal_exti.o(i.HAL_EXTI_GenerateSWI)
    HAL_EXTI_GetConfigLine                   0x08002369   Thumb Code   148  stm32f1xx_hal_exti.o(i.HAL_EXTI_GetConfigLine)
    HAL_EXTI_GetHandle                       0x08002405   Thumb Code    14  stm32f1xx_hal_exti.o(i.HAL_EXTI_GetHandle)
    HAL_EXTI_GetPending                      0x08002415   Thumb Code    30  stm32f1xx_hal_exti.o(i.HAL_EXTI_GetPending)
    HAL_EXTI_IRQHandler                      0x08002439   Thumb Code    40  stm32f1xx_hal_exti.o(i.HAL_EXTI_IRQHandler)
    HAL_EXTI_RegisterCallback                0x08002465   Thumb Code    20  stm32f1xx_hal_exti.o(i.HAL_EXTI_RegisterCallback)
    HAL_EXTI_SetConfigLine                   0x08002479   Thumb Code   232  stm32f1xx_hal_exti.o(i.HAL_EXTI_SetConfigLine)
    HAL_FLASHEx_Erase                        0x08002569   Thumb Code   168  stm32f1xx_hal_flash_ex.o(i.HAL_FLASHEx_Erase)
    HAL_FLASHEx_Erase_IT                     0x08002619   Thumb Code    70  stm32f1xx_hal_flash_ex.o(i.HAL_FLASHEx_Erase_IT)
    HAL_FLASHEx_OBErase                      0x08002669   Thumb Code    88  stm32f1xx_hal_flash_ex.o(i.HAL_FLASHEx_OBErase)
    HAL_FLASHEx_OBGetConfig                  0x080026c9   Thumb Code    28  stm32f1xx_hal_flash_ex.o(i.HAL_FLASHEx_OBGetConfig)
    HAL_FLASHEx_OBGetUserData                0x080026e5   Thumb Code    30  stm32f1xx_hal_flash_ex.o(i.HAL_FLASHEx_OBGetUserData)
    HAL_FLASHEx_OBProgram                    0x0800270d   Thumb Code   194  stm32f1xx_hal_flash_ex.o(i.HAL_FLASHEx_OBProgram)
    HAL_FLASH_EndOfOperationCallback         0x080027d5   Thumb Code     2  stm32f1xx_hal_flash.o(i.HAL_FLASH_EndOfOperationCallback)
    HAL_FLASH_GetError                       0x080027d9   Thumb Code     6  stm32f1xx_hal_flash.o(i.HAL_FLASH_GetError)
    HAL_FLASH_IRQHandler                     0x080027e5   Thumb Code   366  stm32f1xx_hal_flash.o(i.HAL_FLASH_IRQHandler)
    HAL_FLASH_Lock                           0x0800295d   Thumb Code    16  stm32f1xx_hal_flash.o(i.HAL_FLASH_Lock)
    HAL_FLASH_OB_Launch                      0x08002971   Thumb Code     8  stm32f1xx_hal_flash.o(i.HAL_FLASH_OB_Launch)
    HAL_FLASH_OB_Lock                        0x08002979   Thumb Code    16  stm32f1xx_hal_flash.o(i.HAL_FLASH_OB_Lock)
    HAL_FLASH_OB_Unlock                      0x0800298d   Thumb Code    30  stm32f1xx_hal_flash.o(i.HAL_FLASH_OB_Unlock)
    HAL_FLASH_OperationErrorCallback         0x080029b9   Thumb Code     2  stm32f1xx_hal_flash.o(i.HAL_FLASH_OperationErrorCallback)
    HAL_FLASH_Program                        0x080029bd   Thumb Code   168  stm32f1xx_hal_flash.o(i.HAL_FLASH_Program)
    HAL_FLASH_Program_IT                     0x08002a6d   Thumb Code    92  stm32f1xx_hal_flash.o(i.HAL_FLASH_Program_IT)
    HAL_FLASH_Unlock                         0x08002ad1   Thumb Code    36  stm32f1xx_hal_flash.o(i.HAL_FLASH_Unlock)
    HAL_GPIOEx_ConfigEventout                0x08002b01   Thumb Code    20  stm32f1xx_hal_gpio_ex.o(i.HAL_GPIOEx_ConfigEventout)
    HAL_GPIOEx_DisableEventout               0x08002b19   Thumb Code    14  stm32f1xx_hal_gpio_ex.o(i.HAL_GPIOEx_DisableEventout)
    HAL_GPIOEx_EnableEventout                0x08002b2d   Thumb Code    14  stm32f1xx_hal_gpio_ex.o(i.HAL_GPIOEx_EnableEventout)
    HAL_GPIO_DeInit                          0x08002b41   Thumb Code   308  stm32f1xx_hal_gpio.o(i.HAL_GPIO_DeInit)
    HAL_GPIO_EXTI_Callback                   0x08002c95   Thumb Code     2  stm32f1xx_hal_gpio.o(i.HAL_GPIO_EXTI_Callback)
    HAL_GPIO_EXTI_IRQHandler                 0x08002c99   Thumb Code    24  stm32f1xx_hal_gpio.o(i.HAL_GPIO_EXTI_IRQHandler)
    HAL_GPIO_Init                            0x08002cb5   Thumb Code   792  stm32f1xx_hal_gpio.o(i.HAL_GPIO_Init)
    HAL_GPIO_LockPin                         0x08002ff5   Thumb Code    46  stm32f1xx_hal_gpio.o(i.HAL_GPIO_LockPin)
    HAL_GPIO_ReadPin                         0x08003023   Thumb Code    16  stm32f1xx_hal_gpio.o(i.HAL_GPIO_ReadPin)
    HAL_GPIO_TogglePin                       0x08003033   Thumb Code    20  stm32f1xx_hal_gpio.o(i.HAL_GPIO_TogglePin)
    HAL_GPIO_WritePin                        0x08003047   Thumb Code    12  stm32f1xx_hal_gpio.o(i.HAL_GPIO_WritePin)
    HAL_GetDEVID                             0x08003055   Thumb Code    10  stm32f1xx_hal.o(i.HAL_GetDEVID)
    HAL_GetHalVersion                        0x08003065   Thumb Code     4  stm32f1xx_hal.o(i.HAL_GetHalVersion)
    HAL_GetREVID                             0x0800306d   Thumb Code     8  stm32f1xx_hal.o(i.HAL_GetREVID)
    HAL_GetTick                              0x08003079   Thumb Code     6  stm32f1xx_hal.o(i.HAL_GetTick)
    HAL_GetTickFreq                          0x08003085   Thumb Code     6  stm32f1xx_hal.o(i.HAL_GetTickFreq)
    HAL_GetTickPrio                          0x08003091   Thumb Code     6  stm32f1xx_hal.o(i.HAL_GetTickPrio)
    HAL_GetUIDw0                             0x0800309d   Thumb Code     6  stm32f1xx_hal.o(i.HAL_GetUIDw0)
    HAL_GetUIDw1                             0x080030a9   Thumb Code     6  stm32f1xx_hal.o(i.HAL_GetUIDw1)
    HAL_GetUIDw2                             0x080030b5   Thumb Code     6  stm32f1xx_hal.o(i.HAL_GetUIDw2)
    HAL_HalfDuplex_EnableReceiver            0x080030c1   Thumb Code    68  stm32f1xx_hal_uart.o(i.HAL_HalfDuplex_EnableReceiver)
    HAL_HalfDuplex_EnableTransmitter         0x08003105   Thumb Code    68  stm32f1xx_hal_uart.o(i.HAL_HalfDuplex_EnableTransmitter)
    HAL_HalfDuplex_Init                      0x08003149   Thumb Code   122  stm32f1xx_hal_uart.o(i.HAL_HalfDuplex_Init)
    HAL_IncTick                              0x080031c5   Thumb Code    16  stm32f1xx_hal.o(i.HAL_IncTick)
    HAL_Init                                 0x080031dd   Thumb Code    34  stm32f1xx_hal.o(i.HAL_Init)
    HAL_InitTick                             0x08003205   Thumb Code    64  stm32f1xx_hal.o(i.HAL_InitTick)
    HAL_LIN_Init                             0x08003251   Thumb Code   146  stm32f1xx_hal_uart.o(i.HAL_LIN_Init)
    HAL_LIN_SendBreak                        0x080032e3   Thumb Code    80  stm32f1xx_hal_uart.o(i.HAL_LIN_SendBreak)
    HAL_MspDeInit                            0x08003333   Thumb Code     2  stm32f1xx_hal.o(i.HAL_MspDeInit)
    HAL_MspInit                              0x08003335   Thumb Code    76  stm32f1xx_hal_msp.o(i.HAL_MspInit)
    HAL_MultiProcessor_EnterMuteMode         0x0800338b   Thumb Code    82  stm32f1xx_hal_uart.o(i.HAL_MultiProcessor_EnterMuteMode)
    HAL_MultiProcessor_ExitMuteMode          0x080033dd   Thumb Code    82  stm32f1xx_hal_uart.o(i.HAL_MultiProcessor_ExitMuteMode)
    HAL_MultiProcessor_Init                  0x0800342f   Thumb Code   158  stm32f1xx_hal_uart.o(i.HAL_MultiProcessor_Init)
    HAL_NVIC_ClearPendingIRQ                 0x080034cd   Thumb Code    30  stm32f1xx_hal_cortex.o(i.HAL_NVIC_ClearPendingIRQ)
    HAL_NVIC_DisableIRQ                      0x080034f1   Thumb Code    62  stm32f1xx_hal_cortex.o(i.HAL_NVIC_DisableIRQ)
    HAL_NVIC_EnableIRQ                       0x08003535   Thumb Code    32  stm32f1xx_hal_cortex.o(i.HAL_NVIC_EnableIRQ)
    HAL_NVIC_GetActive                       0x08003555   Thumb Code    44  stm32f1xx_hal_cortex.o(i.HAL_NVIC_GetActive)
    HAL_NVIC_GetPendingIRQ                   0x08003585   Thumb Code    44  stm32f1xx_hal_cortex.o(i.HAL_NVIC_GetPendingIRQ)
    HAL_NVIC_GetPriority                     0x080035b5   Thumb Code   138  stm32f1xx_hal_cortex.o(i.HAL_NVIC_GetPriority)
    HAL_NVIC_GetPriorityGrouping             0x08003649   Thumb Code     8  stm32f1xx_hal_cortex.o(i.HAL_NVIC_GetPriorityGrouping)
    HAL_NVIC_SetPendingIRQ                   0x08003651   Thumb Code    30  stm32f1xx_hal_cortex.o(i.HAL_NVIC_SetPendingIRQ)
    HAL_NVIC_SetPriority                     0x08003675   Thumb Code   124  stm32f1xx_hal_cortex.o(i.HAL_NVIC_SetPriority)
    HAL_NVIC_SetPriorityGrouping             0x080036f1   Thumb Code    32  stm32f1xx_hal_cortex.o(i.HAL_NVIC_SetPriorityGrouping)
    HAL_NVIC_SystemReset                     0x08003719   Thumb Code    60  stm32f1xx_hal_cortex.o(i.HAL_NVIC_SystemReset)
    HAL_PWR_ConfigPVD                        0x0800375d   Thumb Code   172  stm32f1xx_hal_pwr.o(i.HAL_PWR_ConfigPVD)
    HAL_PWR_DeInit                           0x08003811   Thumb Code    24  stm32f1xx_hal_pwr.o(i.HAL_PWR_DeInit)
    HAL_PWR_DisableBkUpAccess                0x0800382d   Thumb Code     8  stm32f1xx_hal_pwr.o(i.HAL_PWR_DisableBkUpAccess)
    HAL_PWR_DisablePVD                       0x08003839   Thumb Code     8  stm32f1xx_hal_pwr.o(i.HAL_PWR_DisablePVD)
    HAL_PWR_DisableSEVOnPend                 0x08003845   Thumb Code    14  stm32f1xx_hal_pwr.o(i.HAL_PWR_DisableSEVOnPend)
    HAL_PWR_DisableSleepOnExit               0x08003859   Thumb Code    14  stm32f1xx_hal_pwr.o(i.HAL_PWR_DisableSleepOnExit)
    HAL_PWR_DisableWakeUpPin                 0x0800386d   Thumb Code    22  stm32f1xx_hal_pwr.o(i.HAL_PWR_DisableWakeUpPin)
    HAL_PWR_EnableBkUpAccess                 0x08003889   Thumb Code     8  stm32f1xx_hal_pwr.o(i.HAL_PWR_EnableBkUpAccess)
    HAL_PWR_EnablePVD                        0x08003895   Thumb Code     8  stm32f1xx_hal_pwr.o(i.HAL_PWR_EnablePVD)
    HAL_PWR_EnableSEVOnPend                  0x080038a1   Thumb Code    14  stm32f1xx_hal_pwr.o(i.HAL_PWR_EnableSEVOnPend)
    HAL_PWR_EnableSleepOnExit                0x080038b5   Thumb Code    14  stm32f1xx_hal_pwr.o(i.HAL_PWR_EnableSleepOnExit)
    HAL_PWR_EnableWakeUpPin                  0x080038c9   Thumb Code    22  stm32f1xx_hal_pwr.o(i.HAL_PWR_EnableWakeUpPin)
    HAL_PWR_EnterSLEEPMode                   0x080038e5   Thumb Code    28  stm32f1xx_hal_pwr.o(i.HAL_PWR_EnterSLEEPMode)
    HAL_PWR_EnterSTANDBYMode                 0x08003905   Thumb Code    32  stm32f1xx_hal_pwr.o(i.HAL_PWR_EnterSTANDBYMode)
    HAL_PWR_EnterSTOPMode                    0x0800392d   Thumb Code    74  stm32f1xx_hal_pwr.o(i.HAL_PWR_EnterSTOPMode)
    HAL_PWR_PVDCallback                      0x08003981   Thumb Code     2  stm32f1xx_hal_pwr.o(i.HAL_PWR_PVDCallback)
    HAL_PWR_PVD_IRQHandler                   0x08003985   Thumb Code    26  stm32f1xx_hal_pwr.o(i.HAL_PWR_PVD_IRQHandler)
    HAL_RCCEx_GetPeriphCLKConfig             0x080039a5   Thumb Code    78  stm32f1xx_hal_rcc_ex.o(i.HAL_RCCEx_GetPeriphCLKConfig)
    HAL_RCCEx_GetPeriphCLKFreq               0x080039f9   Thumb Code   260  stm32f1xx_hal_rcc_ex.o(i.HAL_RCCEx_GetPeriphCLKFreq)
    HAL_RCCEx_PeriphCLKConfig                0x08003b11   Thumb Code   290  stm32f1xx_hal_rcc_ex.o(i.HAL_RCCEx_PeriphCLKConfig)
    HAL_RCC_CSSCallback                      0x08003c41   Thumb Code     2  stm32f1xx_hal_rcc.o(i.HAL_RCC_CSSCallback)
    HAL_RCC_ClockConfig                      0x08003c45   Thumb Code   376  stm32f1xx_hal_rcc.o(i.HAL_RCC_ClockConfig)
    HAL_RCC_DeInit                           0x08003dd1   Thumb Code   254  stm32f1xx_hal_rcc.o(i.HAL_RCC_DeInit)
    HAL_RCC_DisableCSS                       0x08003ee1   Thumb Code     8  stm32f1xx_hal_rcc.o(i.HAL_RCC_DisableCSS)
    HAL_RCC_EnableCSS                        0x08003eed   Thumb Code     8  stm32f1xx_hal_rcc.o(i.HAL_RCC_EnableCSS)
    HAL_RCC_GetClockConfig                   0x08003ef9   Thumb Code    58  stm32f1xx_hal_rcc.o(i.HAL_RCC_GetClockConfig)
    HAL_RCC_GetHCLKFreq                      0x08003f3d   Thumb Code     6  stm32f1xx_hal_rcc.o(i.HAL_RCC_GetHCLKFreq)
    HAL_RCC_GetOscConfig                     0x08003f49   Thumb Code   196  stm32f1xx_hal_rcc.o(i.HAL_RCC_GetOscConfig)
    HAL_RCC_GetPCLK1Freq                     0x08004011   Thumb Code    22  stm32f1xx_hal_rcc.o(i.HAL_RCC_GetPCLK1Freq)
    HAL_RCC_GetPCLK2Freq                     0x08004031   Thumb Code    22  stm32f1xx_hal_rcc.o(i.HAL_RCC_GetPCLK2Freq)
    HAL_RCC_GetSysClockFreq                  0x08004051   Thumb Code    92  stm32f1xx_hal_rcc.o(i.HAL_RCC_GetSysClockFreq)
    HAL_RCC_MCOConfig                        0x080040c1   Thumb Code    92  stm32f1xx_hal_rcc.o(i.HAL_RCC_MCOConfig)
    HAL_RCC_NMI_IRQHandler                   0x08004125   Thumb Code    26  stm32f1xx_hal_rcc.o(i.HAL_RCC_NMI_IRQHandler)
    HAL_RCC_OscConfig                        0x08004145   Thumb Code  1114  stm32f1xx_hal_rcc.o(i.HAL_RCC_OscConfig)
    HAL_ResumeTick                           0x080045a9   Thumb Code    18  stm32f1xx_hal.o(i.HAL_ResumeTick)
    HAL_SYSTICK_CLKSourceConfig              0x080045bb   Thumb Code    40  stm32f1xx_hal_cortex.o(i.HAL_SYSTICK_CLKSourceConfig)
    HAL_SYSTICK_Callback                     0x080045e3   Thumb Code     2  stm32f1xx_hal_cortex.o(i.HAL_SYSTICK_Callback)
    HAL_SYSTICK_Config                       0x080045e5   Thumb Code    52  stm32f1xx_hal_cortex.o(i.HAL_SYSTICK_Config)
    HAL_SYSTICK_IRQHandler                   0x08004619   Thumb Code     8  stm32f1xx_hal_cortex.o(i.HAL_SYSTICK_IRQHandler)
    HAL_SetTickFreq                          0x08004621   Thumb Code    40  stm32f1xx_hal.o(i.HAL_SetTickFreq)
    HAL_SuspendTick                          0x08004651   Thumb Code    18  stm32f1xx_hal.o(i.HAL_SuspendTick)
    HAL_UARTEx_GetRxEventType                0x08004663   Thumb Code     6  stm32f1xx_hal_uart.o(i.HAL_UARTEx_GetRxEventType)
    HAL_UARTEx_ReceiveToIdle                 0x08004669   Thumb Code   296  stm32f1xx_hal_uart.o(i.HAL_UARTEx_ReceiveToIdle)
    HAL_UARTEx_ReceiveToIdle_DMA             0x08004791   Thumb Code   112  stm32f1xx_hal_uart.o(i.HAL_UARTEx_ReceiveToIdle_DMA)
    HAL_UARTEx_ReceiveToIdle_IT              0x08004801   Thumb Code   114  stm32f1xx_hal_uart.o(i.HAL_UARTEx_ReceiveToIdle_IT)
    HAL_UARTEx_RxEventCallback               0x08004873   Thumb Code     2  stm32f1xx_hal_uart.o(i.HAL_UARTEx_RxEventCallback)
    HAL_UART_Abort                           0x08004875   Thumb Code   278  stm32f1xx_hal_uart.o(i.HAL_UART_Abort)
    HAL_UART_AbortCpltCallback               0x0800498b   Thumb Code     2  stm32f1xx_hal_uart.o(i.HAL_UART_AbortCpltCallback)
    HAL_UART_AbortReceive                    0x0800498d   Thumb Code   194  stm32f1xx_hal_uart.o(i.HAL_UART_AbortReceive)
    HAL_UART_AbortReceiveCpltCallback        0x08004a4f   Thumb Code     2  stm32f1xx_hal_uart.o(i.HAL_UART_AbortReceiveCpltCallback)
    HAL_UART_AbortReceive_IT                 0x08004a51   Thumb Code   212  stm32f1xx_hal_uart.o(i.HAL_UART_AbortReceive_IT)
    HAL_UART_AbortTransmit                   0x08004b29   Thumb Code   124  stm32f1xx_hal_uart.o(i.HAL_UART_AbortTransmit)
    HAL_UART_AbortTransmitCpltCallback       0x08004ba5   Thumb Code     2  stm32f1xx_hal_uart.o(i.HAL_UART_AbortTransmitCpltCallback)
    HAL_UART_AbortTransmit_IT                0x08004ba9   Thumb Code   138  stm32f1xx_hal_uart.o(i.HAL_UART_AbortTransmit_IT)
    HAL_UART_Abort_IT                        0x08004c39   Thumb Code   320  stm32f1xx_hal_uart.o(i.HAL_UART_Abort_IT)
    HAL_UART_DMAPause                        0x08004d81   Thumb Code   166  stm32f1xx_hal_uart.o(i.HAL_UART_DMAPause)
    HAL_UART_DMAResume                       0x08004e27   Thumb Code   170  stm32f1xx_hal_uart.o(i.HAL_UART_DMAResume)
    HAL_UART_DMAStop                         0x08004ed1   Thumb Code   138  stm32f1xx_hal_uart.o(i.HAL_UART_DMAStop)
    HAL_UART_DeInit                          0x08004f5b   Thumb Code    62  stm32f1xx_hal_uart.o(i.HAL_UART_DeInit)
    HAL_UART_ErrorCallback                   0x08004f99   Thumb Code     2  stm32f1xx_hal_uart.o(i.HAL_UART_ErrorCallback)
    HAL_UART_GetError                        0x08004f9b   Thumb Code     6  stm32f1xx_hal_uart.o(i.HAL_UART_GetError)
    HAL_UART_GetState                        0x08004fa1   Thumb Code    20  stm32f1xx_hal_uart.o(i.HAL_UART_GetState)
    HAL_UART_IRQHandler                      0x08004fb5   Thumb Code   736  stm32f1xx_hal_uart.o(i.HAL_UART_IRQHandler)
    HAL_UART_Init                            0x08005299   Thumb Code   118  stm32f1xx_hal_uart.o(i.HAL_UART_Init)
    HAL_UART_MspDeInit                       0x08005311   Thumb Code    36  usart.o(i.HAL_UART_MspDeInit)
    HAL_UART_MspInit                         0x08005345   Thumb Code   122  usart.o(i.HAL_UART_MspInit)
    HAL_UART_Receive                         0x080053cf   Thumb Code   194  stm32f1xx_hal_uart.o(i.HAL_UART_Receive)
    HAL_UART_Receive_DMA                     0x08005491   Thumb Code    44  stm32f1xx_hal_uart.o(i.HAL_UART_Receive_DMA)
    HAL_UART_Receive_IT                      0x080054bd   Thumb Code    44  stm32f1xx_hal_uart.o(i.HAL_UART_Receive_IT)
    HAL_UART_RxCpltCallback                  0x080054e9   Thumb Code     2  stm32f1xx_hal_uart.o(i.HAL_UART_RxCpltCallback)
    HAL_UART_RxHalfCpltCallback              0x080054eb   Thumb Code     2  stm32f1xx_hal_uart.o(i.HAL_UART_RxHalfCpltCallback)
    HAL_UART_Transmit                        0x080054ed   Thumb Code   190  stm32f1xx_hal_uart.o(i.HAL_UART_Transmit)
    HAL_UART_Transmit_DMA                    0x080055ad   Thumb Code   128  stm32f1xx_hal_uart.o(i.HAL_UART_Transmit_DMA)
    HAL_UART_Transmit_IT                     0x08005639   Thumb Code    56  stm32f1xx_hal_uart.o(i.HAL_UART_Transmit_IT)
    HAL_UART_TxCpltCallback                  0x08005671   Thumb Code     2  stm32f1xx_hal_uart.o(i.HAL_UART_TxCpltCallback)
    HAL_UART_TxHalfCpltCallback              0x08005673   Thumb Code     2  stm32f1xx_hal_uart.o(i.HAL_UART_TxHalfCpltCallback)
    HardFault_Handler                        0x08005675   Thumb Code     4  stm32f1xx_it.o(i.HardFault_Handler)
    MX_GPIO_Init                             0x08005679   Thumb Code    84  gpio.o(i.MX_GPIO_Init)
    MX_USART1_UART_Init                      0x080056d1   Thumb Code    46  usart.o(i.MX_USART1_UART_Init)
    MemManage_Handler                        0x08005709   Thumb Code     4  stm32f1xx_it.o(i.MemManage_Handler)
    NMI_Handler                              0x0800570d   Thumb Code     4  stm32f1xx_it.o(i.NMI_Handler)
    PendSV_Handler                           0x08005717   Thumb Code     2  stm32f1xx_it.o(i.PendSV_Handler)
    SVC_Handler                              0x08005741   Thumb Code     2  stm32f1xx_it.o(i.SVC_Handler)
    SysTick_Handler                          0x08005743   Thumb Code     8  stm32f1xx_it.o(i.SysTick_Handler)
    SystemClock_Config                       0x0800574b   Thumb Code   102  main.o(i.SystemClock_Config)
    SystemCoreClockUpdate                    0x080057b1   Thumb Code   142  system_stm32f1xx.o(i.SystemCoreClockUpdate)
    SystemInit                               0x08005855   Thumb Code     2  system_stm32f1xx.o(i.SystemInit)
    UART_Start_Receive_DMA                   0x08005d49   Thumb Code   186  stm32f1xx_hal_uart.o(i.UART_Start_Receive_DMA)
    UART_Start_Receive_IT                    0x08005e11   Thumb Code    64  stm32f1xx_hal_uart.o(i.UART_Start_Receive_IT)
    UsageFault_Handler                       0x08005f3d   Thumb Code     4  stm32f1xx_it.o(i.UsageFault_Handler)
    __0printf$8                              0x08005f41   Thumb Code    22  printf8.o(i.__0printf$8)
    __1printf$8                              0x08005f41   Thumb Code     0  printf8.o(i.__0printf$8)
    __2printf                                0x08005f41   Thumb Code     0  printf8.o(i.__0printf$8)
    __scatterload_copy                       0x08005f99   Thumb Code    14  handlers.o(i.__scatterload_copy)
    __scatterload_null                       0x08005fa7   Thumb Code     2  handlers.o(i.__scatterload_null)
    __scatterload_zeroinit                   0x08005fa9   Thumb Code    14  handlers.o(i.__scatterload_zeroinit)
    back_trace                               0x08006411   Thumb Code    62  unwind.o(i.back_trace)
    decode_prel31                            0x08006461   Thumb Code    10  unwind.o(i.decode_prel31)
    fputc                                    0x0800646d   Thumb Code    26  usart.o(i.fputc)
    free                                     0x0800648d   Thumb Code    76  malloc.o(i.free)
    main                                     0x080064dd   Thumb Code    40  main.o(i.main)
    malloc                                   0x08006505   Thumb Code    92  malloc.o(i.malloc)
    show_unwind_info                         0x080065bd   Thumb Code    84  unwind.o(i.show_unwind_info)
    test_a                                   0x08006689   Thumb Code    32  main.o(i.test_a)
    test_b                                   0x080066a9   Thumb Code    20  main.o(i.test_b)
    test_c                                   0x080066bd   Thumb Code    18  main.o(i.test_c)
    unwind_frame                             0x08006a1d   Thumb Code   328  unwind.o(i.unwind_frame)
    AHBPrescTable                            0x08006ca9   Data          16  system_stm32f1xx.o(.constdata)
    APBPrescTable                            0x08006cb9   Data           8  system_stm32f1xx.o(.constdata)
    Region$$Table$$Base                      0x08006d08   Number         0  anon$$obj.o(Region$$Table)
    Image$$ER_EXIDX$$Base                    0x08006d28   Number         0  anon$$obj.o ABSOLUTE
    Region$$Table$$Limit                     0x08006d28   Number         0  anon$$obj.o(Region$$Table)
    SHT$$ARM_EXIDX$$Base                     0x08006d28   Number         0  main.o(.ARM.exidx)
    Image$$ER_EXIDX$$Limit                   0x080071c0   Number         0  anon$$obj.o ABSOLUTE
    SHT$$ARM_EXIDX$$Limit                    0x080071c0   Number         0  unwind.o(.ARM.exidx)
    __start_unwind_idx                       0x20000000   Data           4  unwind.o(.data)
    __stop_unwind_idx                        0x20000004   Data           4  unwind.o(.data)
    uwTick                                   0x2000000c   Data           4  stm32f1xx_hal.o(.data)
    uwTickPrio                               0x20000010   Data           4  stm32f1xx_hal.o(.data)
    uwTickFreq                               0x20000014   Data           1  stm32f1xx_hal.o(.data)
    SystemCoreClock                          0x20000018   Data           4  system_stm32f1xx.o(.data)
    __stdout                                 0x2000001c   Data           4  stdout.o(.data)
    __microlib_freelist                      0x20000020   Data           4  mvars.o(.data)
    __microlib_freelist_initialised          0x20000024   Data           4  mvars.o(.data)
    huart1                                   0x20000028   Data          72  usart.o(.bss)
    pFlash                                   0x20000070   Data          32  stm32f1xx_hal_flash.o(.bss)
    __heap_base                              0x20000090   Data           0  startup_stm32f103xe.o(HEAP)
    __heap_limit                             0x20000290   Data           0  startup_stm32f103xe.o(HEAP)
    __initial_sp                             0x20000690   Data           0  startup_stm32f103xe.o(STACK)



==============================================================================

Memory Map of the image

  Image Entry point : 0x08000131

  Load Region LR_IROM1 (Base: 0x08000000, Size: 0x000071e8, Max: 0x00040000, ABSOLUTE)

    Execution Region ER_IROM1 (Exec base: 0x08000000, Load base: 0x08000000, Size: 0x00006d28, Max: 0x00040000, ABSOLUTE)

    Exec Addr    Load Addr    Size         Type   Attr      Idx    E Section Name        Object

    0x08000000   0x08000000   0x00000130   Data   RO            3    RESET               startup_stm32f103xe.o
    0x08000130   0x08000130   0x00000000   Code   RO         2222  * .ARM.Collect$$$$00000000  mc_w.l(entry.o)
    0x08000130   0x08000130   0x00000004   Code   RO         2493    .ARM.Collect$$$$00000001  mc_w.l(entry2.o)
    0x08000134   0x08000134   0x00000004   Code   RO         2496    .ARM.Collect$$$$00000004  mc_w.l(entry5.o)
    0x08000138   0x08000138   0x00000000   Code   RO         2498    .ARM.Collect$$$$00000008  mc_w.l(entry7b.o)
    0x08000138   0x08000138   0x00000000   Code   RO         2500    .ARM.Collect$$$$0000000A  mc_w.l(entry8b.o)
    0x08000138   0x08000138   0x00000008   Code   RO         2501    .ARM.Collect$$$$0000000B  mc_w.l(entry9a.o)
    0x08000140   0x08000140   0x00000004   Code   RO         2508    .ARM.Collect$$$$0000000E  mc_w.l(entry12b.o)
    0x08000144   0x08000144   0x00000000   Code   RO         2503    .ARM.Collect$$$$0000000F  mc_w.l(entry10a.o)
    0x08000144   0x08000144   0x00000000   Code   RO         2505    .ARM.Collect$$$$00000011  mc_w.l(entry11a.o)
    0x08000144   0x08000144   0x00000004   Code   RO         2494    .ARM.Collect$$$$00002712  mc_w.l(entry2.o)
    0x08000148   0x08000148   0x0000007c   Code   RO         2525    .emb_text           cpprt_w.l(unwinder.o)
    0x080001c4   0x080001c4   0x00000004   Code   RO         2530    .emb_text           cpprt_w.l(unwind_activity.o)
    0x080001c8   0x080001c8   0x00000004   Code   RO           10    .rev16_text         main.o
    0x080001cc   0x080001cc   0x00000004   Code   RO          169    .rev16_text         gpio.o
    0x080001d0   0x080001d0   0x00000004   Code   RO          197    .rev16_text         usart.o
    0x080001d4   0x080001d4   0x00000004   Code   RO          256    .rev16_text         stm32f1xx_it.o
    0x080001d8   0x080001d8   0x00000004   Code   RO          343    .rev16_text         stm32f1xx_hal_msp.o
    0x080001dc   0x080001dc   0x00000004   Code   RO          475    .rev16_text         stm32f1xx_hal_gpio_ex.o
    0x080001e0   0x080001e0   0x00000004   Code   RO          517    .rev16_text         stm32f1xx_hal_tim.o
    0x080001e4   0x080001e4   0x00000004   Code   RO          538    .rev16_text         stm32f1xx_hal_tim_ex.o
    0x080001e8   0x080001e8   0x00000004   Code   RO          559    .rev16_text         stm32f1xx_hal_uart.o
    0x080001ec   0x080001ec   0x00000004   Code   RO          997    .rev16_text         stm32f1xx_hal.o
    0x080001f0   0x080001f0   0x00000004   Code   RO         1199    .rev16_text         stm32f1xx_hal_rcc.o
    0x080001f4   0x080001f4   0x00000004   Code   RO         1325    .rev16_text         stm32f1xx_hal_rcc_ex.o
    0x080001f8   0x080001f8   0x00000004   Code   RO         1368    .rev16_text         stm32f1xx_hal_gpio.o
    0x080001fc   0x080001fc   0x00000004   Code   RO         1445    .rev16_text         stm32f1xx_hal_dma.o
    0x08000200   0x08000200   0x00000004   Code   RO         1556    .rev16_text         stm32f1xx_hal_cortex.o
    0x08000204   0x08000204   0x00000004   Code   RO         1699    .rev16_text         stm32f1xx_hal_pwr.o
    0x08000208   0x08000208   0x00000004   Code   RO         1845    .rev16_text         stm32f1xx_hal_flash.o
    0x0800020c   0x0800020c   0x00000004   Code   RO         1965    .rev16_text         stm32f1xx_hal_flash_ex.o
    0x08000210   0x08000210   0x00000004   Code   RO         2090    .rev16_text         stm32f1xx_hal_exti.o
    0x08000214   0x08000214   0x00000004   Code   RO         2174    .rev16_text         system_stm32f1xx.o
    0x08000218   0x08000218   0x00000004   Code   RO           11    .revsh_text         main.o
    0x0800021c   0x0800021c   0x00000004   Code   RO          170    .revsh_text         gpio.o
    0x08000220   0x08000220   0x00000004   Code   RO          198    .revsh_text         usart.o
    0x08000224   0x08000224   0x00000004   Code   RO          257    .revsh_text         stm32f1xx_it.o
    0x08000228   0x08000228   0x00000004   Code   RO          344    .revsh_text         stm32f1xx_hal_msp.o
    0x0800022c   0x0800022c   0x00000004   Code   RO          476    .revsh_text         stm32f1xx_hal_gpio_ex.o
    0x08000230   0x08000230   0x00000004   Code   RO          518    .revsh_text         stm32f1xx_hal_tim.o
    0x08000234   0x08000234   0x00000004   Code   RO          539    .revsh_text         stm32f1xx_hal_tim_ex.o
    0x08000238   0x08000238   0x00000004   Code   RO          560    .revsh_text         stm32f1xx_hal_uart.o
    0x0800023c   0x0800023c   0x00000004   Code   RO          998    .revsh_text         stm32f1xx_hal.o
    0x08000240   0x08000240   0x00000004   Code   RO         1200    .revsh_text         stm32f1xx_hal_rcc.o
    0x08000244   0x08000244   0x00000004   Code   RO         1326    .revsh_text         stm32f1xx_hal_rcc_ex.o
    0x08000248   0x08000248   0x00000004   Code   RO         1369    .revsh_text         stm32f1xx_hal_gpio.o
    0x0800024c   0x0800024c   0x00000004   Code   RO         1446    .revsh_text         stm32f1xx_hal_dma.o
    0x08000250   0x08000250   0x00000004   Code   RO         1557    .revsh_text         stm32f1xx_hal_cortex.o
    0x08000254   0x08000254   0x00000004   Code   RO         1700    .revsh_text         stm32f1xx_hal_pwr.o
    0x08000258   0x08000258   0x00000004   Code   RO         1846    .revsh_text         stm32f1xx_hal_flash.o
    0x0800025c   0x0800025c   0x00000004   Code   RO         1966    .revsh_text         stm32f1xx_hal_flash_ex.o
    0x08000260   0x08000260   0x00000004   Code   RO         2091    .revsh_text         stm32f1xx_hal_exti.o
    0x08000264   0x08000264   0x00000004   Code   RO         2175    .revsh_text         system_stm32f1xx.o
    0x08000268   0x08000268   0x00000006   Code   RO           12    .rrx_text           main.o
    0x0800026e   0x0800026e   0x00000002   PAD
    0x08000270   0x08000270   0x00000006   Code   RO          171    .rrx_text           gpio.o
    0x08000276   0x08000276   0x00000002   PAD
    0x08000278   0x08000278   0x00000006   Code   RO          199    .rrx_text           usart.o
    0x0800027e   0x0800027e   0x00000002   PAD
    0x08000280   0x08000280   0x00000006   Code   RO          258    .rrx_text           stm32f1xx_it.o
    0x08000286   0x08000286   0x00000002   PAD
    0x08000288   0x08000288   0x00000006   Code   RO          345    .rrx_text           stm32f1xx_hal_msp.o
    0x0800028e   0x0800028e   0x00000002   PAD
    0x08000290   0x08000290   0x00000006   Code   RO          477    .rrx_text           stm32f1xx_hal_gpio_ex.o
    0x08000296   0x08000296   0x00000002   PAD
    0x08000298   0x08000298   0x00000006   Code   RO          519    .rrx_text           stm32f1xx_hal_tim.o
    0x0800029e   0x0800029e   0x00000002   PAD
    0x080002a0   0x080002a0   0x00000006   Code   RO          540    .rrx_text           stm32f1xx_hal_tim_ex.o
    0x080002a6   0x080002a6   0x00000002   PAD
    0x080002a8   0x080002a8   0x00000006   Code   RO          561    .rrx_text           stm32f1xx_hal_uart.o
    0x080002ae   0x080002ae   0x00000002   PAD
    0x080002b0   0x080002b0   0x00000006   Code   RO          999    .rrx_text           stm32f1xx_hal.o
    0x080002b6   0x080002b6   0x00000002   PAD
    0x080002b8   0x080002b8   0x00000006   Code   RO         1201    .rrx_text           stm32f1xx_hal_rcc.o
    0x080002be   0x080002be   0x00000002   PAD
    0x080002c0   0x080002c0   0x00000006   Code   RO         1327    .rrx_text           stm32f1xx_hal_rcc_ex.o
    0x080002c6   0x080002c6   0x00000002   PAD
    0x080002c8   0x080002c8   0x00000006   Code   RO         1370    .rrx_text           stm32f1xx_hal_gpio.o
    0x080002ce   0x080002ce   0x00000002   PAD
    0x080002d0   0x080002d0   0x00000006   Code   RO         1447    .rrx_text           stm32f1xx_hal_dma.o
    0x080002d6   0x080002d6   0x00000002   PAD
    0x080002d8   0x080002d8   0x00000006   Code   RO         1558    .rrx_text           stm32f1xx_hal_cortex.o
    0x080002de   0x080002de   0x00000002   PAD
    0x080002e0   0x080002e0   0x00000006   Code   RO         1701    .rrx_text           stm32f1xx_hal_pwr.o
    0x080002e6   0x080002e6   0x00000002   PAD
    0x080002e8   0x080002e8   0x00000006   Code   RO         1847    .rrx_text           stm32f1xx_hal_flash.o
    0x080002ee   0x080002ee   0x00000002   PAD
    0x080002f0   0x080002f0   0x00000006   Code   RO         1967    .rrx_text           stm32f1xx_hal_flash_ex.o
    0x080002f6   0x080002f6   0x00000002   PAD
    0x080002f8   0x080002f8   0x00000006   Code   RO         2092    .rrx_text           stm32f1xx_hal_exti.o
    0x080002fe   0x080002fe   0x00000002   PAD
    0x08000300   0x08000300   0x00000006   Code   RO         2176    .rrx_text           system_stm32f1xx.o
    0x08000306   0x08000306   0x00000002   PAD
    0x08000308   0x08000308   0x00000024   Code   RO            4    .text               startup_stm32f103xe.o
    0x0800032c   0x0800032c   0x00000006   Code   RO         2216    .text               cpprt_w.l(unwind_pr1.o)
    0x08000332   0x08000332   0x00000006   Code   RO         2219    .text               cpprt_w.l(unwind_pr0.o)
    0x08000338   0x08000338   0x00000020   Code   RO         2225    .text               mc_w.l(llushr.o)
    0x08000358   0x08000358   0x00000024   Code   RO         2227    .text               mc_w.l(memseta.o)
    0x0800037c   0x0800037c   0x000005f4   Code   RO         2490    .text               cpprt_w.l(unwind_prcommon.o)
    0x08000970   0x08000970   0x00000062   Code   RO         2512    .text               mc_w.l(uldiv.o)
    0x080009d2   0x080009d2   0x00000002   PAD
    0x080009d4   0x080009d4   0x000003cc   Code   RO         2526    .text               cpprt_w.l(unwinder.o)
    0x08000da0   0x08000da0   0x00000024   Code   RO         2532    .text               mc_w.l(init.o)
    0x08000dc4   0x08000dc4   0x0000001e   Code   RO         2534    .text               mc_w.l(llshl.o)
    0x08000de2   0x08000de2   0x00000046   Code   RO         2540    .text               mc_w.l(bsearch.o)
    0x08000e28   0x08000e28   0x00000024   Code   RO         2544    .text               mc_w.l(memcpya.o)
    0x08000e4c   0x08000e4c   0x00000004   Code   RO          262    i.BusFault_Handler  stm32f1xx_it.o
    0x08000e50   0x08000e50   0x0000002c   Code   RO         1451    i.DMA_SetConfig     stm32f1xx_hal_dma.o
    0x08000e7c   0x08000e7c   0x00000002   Code   RO          263    i.DebugMon_Handler  stm32f1xx_it.o
    0x08000e7e   0x08000e7e   0x00000006   Code   RO           16    i.Error_Handler     main.o
    0x08000e84   0x08000e84   0x00000028   Code   RO         1971    i.FLASH_MassErase   stm32f1xx_hal_flash_ex.o
    0x08000eac   0x08000eac   0x000000e8   Code   RO         1972    i.FLASH_OB_DisableWRP  stm32f1xx_hal_flash_ex.o
    0x08000f94   0x08000f94   0x000000ec   Code   RO         1973    i.FLASH_OB_EnableWRP  stm32f1xx_hal_flash_ex.o
    0x08001080   0x08001080   0x0000001c   Code   RO         1974    i.FLASH_OB_GetRDP   stm32f1xx_hal_flash_ex.o
    0x0800109c   0x0800109c   0x00000010   Code   RO         1975    i.FLASH_OB_GetUser  stm32f1xx_hal_flash_ex.o
    0x080010ac   0x080010ac   0x0000000c   Code   RO         1976    i.FLASH_OB_GetWRP   stm32f1xx_hal_flash_ex.o
    0x080010b8   0x080010b8   0x0000004c   Code   RO         1977    i.FLASH_OB_ProgramData  stm32f1xx_hal_flash_ex.o
    0x08001104   0x08001104   0x0000007c   Code   RO         1978    i.FLASH_OB_RDP_LevelConfig  stm32f1xx_hal_flash_ex.o
    0x08001180   0x08001180   0x00000054   Code   RO         1979    i.FLASH_OB_UserConfig  stm32f1xx_hal_flash_ex.o
    0x080011d4   0x080011d4   0x00000028   Code   RO         1980    i.FLASH_PageErase   stm32f1xx_hal_flash_ex.o
    0x080011fc   0x080011fc   0x00000020   Code   RO         1851    i.FLASH_Program_HalfWord  stm32f1xx_hal_flash.o
    0x0800121c   0x0800121c   0x00000084   Code   RO         1852    i.FLASH_SetErrorCode  stm32f1xx_hal_flash.o
    0x080012a0   0x080012a0   0x00000070   Code   RO         1853    i.FLASH_WaitForLastOperation  stm32f1xx_hal_flash.o
    0x08001310   0x08001310   0x00000014   Code   RO         1003    i.HAL_DBGMCU_DisableDBGSleepMode  stm32f1xx_hal.o
    0x08001324   0x08001324   0x00000014   Code   RO         1004    i.HAL_DBGMCU_DisableDBGStandbyMode  stm32f1xx_hal.o
    0x08001338   0x08001338   0x00000014   Code   RO         1005    i.HAL_DBGMCU_DisableDBGStopMode  stm32f1xx_hal.o
    0x0800134c   0x0800134c   0x00000014   Code   RO         1006    i.HAL_DBGMCU_EnableDBGSleepMode  stm32f1xx_hal.o
    0x08001360   0x08001360   0x00000014   Code   RO         1007    i.HAL_DBGMCU_EnableDBGStandbyMode  stm32f1xx_hal.o
    0x08001374   0x08001374   0x00000014   Code   RO         1008    i.HAL_DBGMCU_EnableDBGStopMode  stm32f1xx_hal.o
    0x08001388   0x08001388   0x00000056   Code   RO         1452    i.HAL_DMA_Abort     stm32f1xx_hal_dma.o
    0x080013de   0x080013de   0x00000002   PAD
    0x080013e0   0x080013e0   0x000001a8   Code   RO         1453    i.HAL_DMA_Abort_IT  stm32f1xx_hal_dma.o
    0x08001588   0x08001588   0x0000008c   Code   RO         1454    i.HAL_DMA_DeInit    stm32f1xx_hal_dma.o
    0x08001614   0x08001614   0x00000006   Code   RO         1455    i.HAL_DMA_GetError  stm32f1xx_hal_dma.o
    0x0800161a   0x0800161a   0x00000008   Code   RO         1456    i.HAL_DMA_GetState  stm32f1xx_hal_dma.o
    0x08001622   0x08001622   0x00000002   PAD
    0x08001624   0x08001624   0x00000398   Code   RO         1457    i.HAL_DMA_IRQHandler  stm32f1xx_hal_dma.o
    0x080019bc   0x080019bc   0x0000008c   Code   RO         1458    i.HAL_DMA_Init      stm32f1xx_hal_dma.o
    0x08001a48   0x08001a48   0x00000654   Code   RO         1459    i.HAL_DMA_PollForTransfer  stm32f1xx_hal_dma.o
    0x0800209c   0x0800209c   0x0000005a   Code   RO         1460    i.HAL_DMA_RegisterCallback  stm32f1xx_hal_dma.o
    0x080020f6   0x080020f6   0x00000072   Code   RO         1461    i.HAL_DMA_Start     stm32f1xx_hal_dma.o
    0x08002168   0x08002168   0x0000009c   Code   RO         1462    i.HAL_DMA_Start_IT  stm32f1xx_hal_dma.o
    0x08002204   0x08002204   0x0000006a   Code   RO         1463    i.HAL_DMA_UnRegisterCallback  stm32f1xx_hal_dma.o
    0x0800226e   0x0800226e   0x00000002   PAD
    0x08002270   0x08002270   0x00000024   Code   RO         1009    i.HAL_DeInit        stm32f1xx_hal.o
    0x08002294   0x08002294   0x00000028   Code   RO         1010    i.HAL_Delay         stm32f1xx_hal.o
    0x080022bc   0x080022bc   0x00000078   Code   RO         2096    i.HAL_EXTI_ClearConfigLine  stm32f1xx_hal_exti.o
    0x08002334   0x08002334   0x0000001c   Code   RO         2097    i.HAL_EXTI_ClearPending  stm32f1xx_hal_exti.o
    0x08002350   0x08002350   0x00000018   Code   RO         2098    i.HAL_EXTI_GenerateSWI  stm32f1xx_hal_exti.o
    0x08002368   0x08002368   0x0000009c   Code   RO         2099    i.HAL_EXTI_GetConfigLine  stm32f1xx_hal_exti.o
    0x08002404   0x08002404   0x0000000e   Code   RO         2100    i.HAL_EXTI_GetHandle  stm32f1xx_hal_exti.o
    0x08002412   0x08002412   0x00000002   PAD
    0x08002414   0x08002414   0x00000024   Code   RO         2101    i.HAL_EXTI_GetPending  stm32f1xx_hal_exti.o
    0x08002438   0x08002438   0x0000002c   Code   RO         2102    i.HAL_EXTI_IRQHandler  stm32f1xx_hal_exti.o
    0x08002464   0x08002464   0x00000014   Code   RO         2103    i.HAL_EXTI_RegisterCallback  stm32f1xx_hal_exti.o
    0x08002478   0x08002478   0x000000f0   Code   RO         2104    i.HAL_EXTI_SetConfigLine  stm32f1xx_hal_exti.o
    0x08002568   0x08002568   0x000000b0   Code   RO         1981    i.HAL_FLASHEx_Erase  stm32f1xx_hal_flash_ex.o
    0x08002618   0x08002618   0x00000050   Code   RO         1982    i.HAL_FLASHEx_Erase_IT  stm32f1xx_hal_flash_ex.o
    0x08002668   0x08002668   0x00000060   Code   RO         1983    i.HAL_FLASHEx_OBErase  stm32f1xx_hal_flash_ex.o
    0x080026c8   0x080026c8   0x0000001c   Code   RO         1984    i.HAL_FLASHEx_OBGetConfig  stm32f1xx_hal_flash_ex.o
    0x080026e4   0x080026e4   0x00000028   Code   RO         1985    i.HAL_FLASHEx_OBGetUserData  stm32f1xx_hal_flash_ex.o
    0x0800270c   0x0800270c   0x000000c8   Code   RO         1986    i.HAL_FLASHEx_OBProgram  stm32f1xx_hal_flash_ex.o
    0x080027d4   0x080027d4   0x00000002   Code   RO         1854    i.HAL_FLASH_EndOfOperationCallback  stm32f1xx_hal_flash.o
    0x080027d6   0x080027d6   0x00000002   PAD
    0x080027d8   0x080027d8   0x0000000c   Code   RO         1855    i.HAL_FLASH_GetError  stm32f1xx_hal_flash.o
    0x080027e4   0x080027e4   0x00000178   Code   RO         1856    i.HAL_FLASH_IRQHandler  stm32f1xx_hal_flash.o
    0x0800295c   0x0800295c   0x00000014   Code   RO         1857    i.HAL_FLASH_Lock    stm32f1xx_hal_flash.o
    0x08002970   0x08002970   0x00000008   Code   RO         1858    i.HAL_FLASH_OB_Launch  stm32f1xx_hal_flash.o
    0x08002978   0x08002978   0x00000014   Code   RO         1859    i.HAL_FLASH_OB_Lock  stm32f1xx_hal_flash.o
    0x0800298c   0x0800298c   0x0000002c   Code   RO         1860    i.HAL_FLASH_OB_Unlock  stm32f1xx_hal_flash.o
    0x080029b8   0x080029b8   0x00000002   Code   RO         1861    i.HAL_FLASH_OperationErrorCallback  stm32f1xx_hal_flash.o
    0x080029ba   0x080029ba   0x00000002   PAD
    0x080029bc   0x080029bc   0x000000b0   Code   RO         1862    i.HAL_FLASH_Program  stm32f1xx_hal_flash.o
    0x08002a6c   0x08002a6c   0x00000064   Code   RO         1863    i.HAL_FLASH_Program_IT  stm32f1xx_hal_flash.o
    0x08002ad0   0x08002ad0   0x00000030   Code   RO         1864    i.HAL_FLASH_Unlock  stm32f1xx_hal_flash.o
    0x08002b00   0x08002b00   0x00000018   Code   RO          481    i.HAL_GPIOEx_ConfigEventout  stm32f1xx_hal_gpio_ex.o
    0x08002b18   0x08002b18   0x00000014   Code   RO          482    i.HAL_GPIOEx_DisableEventout  stm32f1xx_hal_gpio_ex.o
    0x08002b2c   0x08002b2c   0x00000014   Code   RO          483    i.HAL_GPIOEx_EnableEventout  stm32f1xx_hal_gpio_ex.o
    0x08002b40   0x08002b40   0x00000154   Code   RO         1374    i.HAL_GPIO_DeInit   stm32f1xx_hal_gpio.o
    0x08002c94   0x08002c94   0x00000002   Code   RO         1375    i.HAL_GPIO_EXTI_Callback  stm32f1xx_hal_gpio.o
    0x08002c96   0x08002c96   0x00000002   PAD
    0x08002c98   0x08002c98   0x0000001c   Code   RO         1376    i.HAL_GPIO_EXTI_IRQHandler  stm32f1xx_hal_gpio.o
    0x08002cb4   0x08002cb4   0x00000340   Code   RO         1377    i.HAL_GPIO_Init     stm32f1xx_hal_gpio.o
    0x08002ff4   0x08002ff4   0x0000002e   Code   RO         1378    i.HAL_GPIO_LockPin  stm32f1xx_hal_gpio.o
    0x08003022   0x08003022   0x00000010   Code   RO         1379    i.HAL_GPIO_ReadPin  stm32f1xx_hal_gpio.o
    0x08003032   0x08003032   0x00000014   Code   RO         1380    i.HAL_GPIO_TogglePin  stm32f1xx_hal_gpio.o
    0x08003046   0x08003046   0x0000000c   Code   RO         1381    i.HAL_GPIO_WritePin  stm32f1xx_hal_gpio.o
    0x08003052   0x08003052   0x00000002   PAD
    0x08003054   0x08003054   0x00000010   Code   RO         1011    i.HAL_GetDEVID      stm32f1xx_hal.o
    0x08003064   0x08003064   0x00000008   Code   RO         1012    i.HAL_GetHalVersion  stm32f1xx_hal.o
    0x0800306c   0x0800306c   0x0000000c   Code   RO         1013    i.HAL_GetREVID      stm32f1xx_hal.o
    0x08003078   0x08003078   0x0000000c   Code   RO         1014    i.HAL_GetTick       stm32f1xx_hal.o
    0x08003084   0x08003084   0x0000000c   Code   RO         1015    i.HAL_GetTickFreq   stm32f1xx_hal.o
    0x08003090   0x08003090   0x0000000c   Code   RO         1016    i.HAL_GetTickPrio   stm32f1xx_hal.o
    0x0800309c   0x0800309c   0x0000000c   Code   RO         1017    i.HAL_GetUIDw0      stm32f1xx_hal.o
    0x080030a8   0x080030a8   0x0000000c   Code   RO         1018    i.HAL_GetUIDw1      stm32f1xx_hal.o
    0x080030b4   0x080030b4   0x0000000c   Code   RO         1019    i.HAL_GetUIDw2      stm32f1xx_hal.o
    0x080030c0   0x080030c0   0x00000044   Code   RO          565    i.HAL_HalfDuplex_EnableReceiver  stm32f1xx_hal_uart.o
    0x08003104   0x08003104   0x00000044   Code   RO          566    i.HAL_HalfDuplex_EnableTransmitter  stm32f1xx_hal_uart.o
    0x08003148   0x08003148   0x0000007a   Code   RO          567    i.HAL_HalfDuplex_Init  stm32f1xx_hal_uart.o
    0x080031c2   0x080031c2   0x00000002   PAD
    0x080031c4   0x080031c4   0x00000018   Code   RO         1020    i.HAL_IncTick       stm32f1xx_hal.o
    0x080031dc   0x080031dc   0x00000028   Code   RO         1021    i.HAL_Init          stm32f1xx_hal.o
    0x08003204   0x08003204   0x0000004c   Code   RO         1022    i.HAL_InitTick      stm32f1xx_hal.o
    0x08003250   0x08003250   0x00000092   Code   RO          568    i.HAL_LIN_Init      stm32f1xx_hal_uart.o
    0x080032e2   0x080032e2   0x00000050   Code   RO          569    i.HAL_LIN_SendBreak  stm32f1xx_hal_uart.o
    0x08003332   0x08003332   0x00000002   Code   RO         1023    i.HAL_MspDeInit     stm32f1xx_hal.o
    0x08003334   0x08003334   0x00000054   Code   RO          349    i.HAL_MspInit       stm32f1xx_hal_msp.o
    0x08003388   0x08003388   0x00000002   Code   RO         1024    i.HAL_MspInit       stm32f1xx_hal.o
    0x0800338a   0x0800338a   0x00000052   Code   RO          570    i.HAL_MultiProcessor_EnterMuteMode  stm32f1xx_hal_uart.o
    0x080033dc   0x080033dc   0x00000052   Code   RO          571    i.HAL_MultiProcessor_ExitMuteMode  stm32f1xx_hal_uart.o
    0x0800342e   0x0800342e   0x0000009e   Code   RO          572    i.HAL_MultiProcessor_Init  stm32f1xx_hal_uart.o
    0x080034cc   0x080034cc   0x00000024   Code   RO         1562    i.HAL_NVIC_ClearPendingIRQ  stm32f1xx_hal_cortex.o
    0x080034f0   0x080034f0   0x00000044   Code   RO         1563    i.HAL_NVIC_DisableIRQ  stm32f1xx_hal_cortex.o
    0x08003534   0x08003534   0x00000020   Code   RO         1564    i.HAL_NVIC_EnableIRQ  stm32f1xx_hal_cortex.o
    0x08003554   0x08003554   0x00000030   Code   RO         1565    i.HAL_NVIC_GetActive  stm32f1xx_hal_cortex.o
    0x08003584   0x08003584   0x00000030   Code   RO         1566    i.HAL_NVIC_GetPendingIRQ  stm32f1xx_hal_cortex.o
    0x080035b4   0x080035b4   0x00000094   Code   RO         1567    i.HAL_NVIC_GetPriority  stm32f1xx_hal_cortex.o
    0x08003648   0x08003648   0x00000008   Code   RO         1568    i.HAL_NVIC_GetPriorityGrouping  stm32f1xx_hal_cortex.o
    0x08003650   0x08003650   0x00000024   Code   RO         1569    i.HAL_NVIC_SetPendingIRQ  stm32f1xx_hal_cortex.o
    0x08003674   0x08003674   0x0000007c   Code   RO         1570    i.HAL_NVIC_SetPriority  stm32f1xx_hal_cortex.o
    0x080036f0   0x080036f0   0x00000028   Code   RO         1571    i.HAL_NVIC_SetPriorityGrouping  stm32f1xx_hal_cortex.o
    0x08003718   0x08003718   0x00000044   Code   RO         1572    i.HAL_NVIC_SystemReset  stm32f1xx_hal_cortex.o
    0x0800375c   0x0800375c   0x000000b4   Code   RO         1705    i.HAL_PWR_ConfigPVD  stm32f1xx_hal_pwr.o
    0x08003810   0x08003810   0x0000001c   Code   RO         1706    i.HAL_PWR_DeInit    stm32f1xx_hal_pwr.o
    0x0800382c   0x0800382c   0x0000000c   Code   RO         1707    i.HAL_PWR_DisableBkUpAccess  stm32f1xx_hal_pwr.o
    0x08003838   0x08003838   0x0000000c   Code   RO         1708    i.HAL_PWR_DisablePVD  stm32f1xx_hal_pwr.o
    0x08003844   0x08003844   0x00000014   Code   RO         1709    i.HAL_PWR_DisableSEVOnPend  stm32f1xx_hal_pwr.o
    0x08003858   0x08003858   0x00000014   Code   RO         1710    i.HAL_PWR_DisableSleepOnExit  stm32f1xx_hal_pwr.o
    0x0800386c   0x0800386c   0x0000001c   Code   RO         1711    i.HAL_PWR_DisableWakeUpPin  stm32f1xx_hal_pwr.o
    0x08003888   0x08003888   0x0000000c   Code   RO         1712    i.HAL_PWR_EnableBkUpAccess  stm32f1xx_hal_pwr.o
    0x08003894   0x08003894   0x0000000c   Code   RO         1713    i.HAL_PWR_EnablePVD  stm32f1xx_hal_pwr.o
    0x080038a0   0x080038a0   0x00000014   Code   RO         1714    i.HAL_PWR_EnableSEVOnPend  stm32f1xx_hal_pwr.o
    0x080038b4   0x080038b4   0x00000014   Code   RO         1715    i.HAL_PWR_EnableSleepOnExit  stm32f1xx_hal_pwr.o
    0x080038c8   0x080038c8   0x0000001c   Code   RO         1716    i.HAL_PWR_EnableWakeUpPin  stm32f1xx_hal_pwr.o
    0x080038e4   0x080038e4   0x00000020   Code   RO         1717    i.HAL_PWR_EnterSLEEPMode  stm32f1xx_hal_pwr.o
    0x08003904   0x08003904   0x00000028   Code   RO         1718    i.HAL_PWR_EnterSTANDBYMode  stm32f1xx_hal_pwr.o
    0x0800392c   0x0800392c   0x00000054   Code   RO         1719    i.HAL_PWR_EnterSTOPMode  stm32f1xx_hal_pwr.o
    0x08003980   0x08003980   0x00000002   Code   RO         1720    i.HAL_PWR_PVDCallback  stm32f1xx_hal_pwr.o
    0x08003982   0x08003982   0x00000002   PAD
    0x08003984   0x08003984   0x00000020   Code   RO         1721    i.HAL_PWR_PVD_IRQHandler  stm32f1xx_hal_pwr.o
    0x080039a4   0x080039a4   0x00000054   Code   RO         1331    i.HAL_RCCEx_GetPeriphCLKConfig  stm32f1xx_hal_rcc_ex.o
    0x080039f8   0x080039f8   0x00000118   Code   RO         1332    i.HAL_RCCEx_GetPeriphCLKFreq  stm32f1xx_hal_rcc_ex.o
    0x08003b10   0x08003b10   0x00000130   Code   RO         1333    i.HAL_RCCEx_PeriphCLKConfig  stm32f1xx_hal_rcc_ex.o
    0x08003c40   0x08003c40   0x00000002   Code   RO         1205    i.HAL_RCC_CSSCallback  stm32f1xx_hal_rcc.o
    0x08003c42   0x08003c42   0x00000002   PAD
    0x08003c44   0x08003c44   0x0000018c   Code   RO         1206    i.HAL_RCC_ClockConfig  stm32f1xx_hal_rcc.o
    0x08003dd0   0x08003dd0   0x00000110   Code   RO         1207    i.HAL_RCC_DeInit    stm32f1xx_hal_rcc.o
    0x08003ee0   0x08003ee0   0x0000000c   Code   RO         1208    i.HAL_RCC_DisableCSS  stm32f1xx_hal_rcc.o
    0x08003eec   0x08003eec   0x0000000c   Code   RO         1209    i.HAL_RCC_EnableCSS  stm32f1xx_hal_rcc.o
    0x08003ef8   0x08003ef8   0x00000044   Code   RO         1210    i.HAL_RCC_GetClockConfig  stm32f1xx_hal_rcc.o
    0x08003f3c   0x08003f3c   0x0000000c   Code   RO         1211    i.HAL_RCC_GetHCLKFreq  stm32f1xx_hal_rcc.o
    0x08003f48   0x08003f48   0x000000c8   Code   RO         1212    i.HAL_RCC_GetOscConfig  stm32f1xx_hal_rcc.o
    0x08004010   0x08004010   0x00000020   Code   RO         1213    i.HAL_RCC_GetPCLK1Freq  stm32f1xx_hal_rcc.o
    0x08004030   0x08004030   0x00000020   Code   RO         1214    i.HAL_RCC_GetPCLK2Freq  stm32f1xx_hal_rcc.o
    0x08004050   0x08004050   0x00000070   Code   RO         1215    i.HAL_RCC_GetSysClockFreq  stm32f1xx_hal_rcc.o
    0x080040c0   0x080040c0   0x00000064   Code   RO         1216    i.HAL_RCC_MCOConfig  stm32f1xx_hal_rcc.o
    0x08004124   0x08004124   0x00000020   Code   RO         1217    i.HAL_RCC_NMI_IRQHandler  stm32f1xx_hal_rcc.o
    0x08004144   0x08004144   0x00000464   Code   RO         1218    i.HAL_RCC_OscConfig  stm32f1xx_hal_rcc.o
    0x080045a8   0x080045a8   0x00000012   Code   RO         1025    i.HAL_ResumeTick    stm32f1xx_hal.o
    0x080045ba   0x080045ba   0x00000028   Code   RO         1573    i.HAL_SYSTICK_CLKSourceConfig  stm32f1xx_hal_cortex.o
    0x080045e2   0x080045e2   0x00000002   Code   RO         1574    i.HAL_SYSTICK_Callback  stm32f1xx_hal_cortex.o
    0x080045e4   0x080045e4   0x00000034   Code   RO         1575    i.HAL_SYSTICK_Config  stm32f1xx_hal_cortex.o
    0x08004618   0x08004618   0x00000008   Code   RO         1576    i.HAL_SYSTICK_IRQHandler  stm32f1xx_hal_cortex.o
    0x08004620   0x08004620   0x00000030   Code   RO         1026    i.HAL_SetTickFreq   stm32f1xx_hal.o
    0x08004650   0x08004650   0x00000012   Code   RO         1027    i.HAL_SuspendTick   stm32f1xx_hal.o
    0x08004662   0x08004662   0x00000006   Code   RO          573    i.HAL_UARTEx_GetRxEventType  stm32f1xx_hal_uart.o
    0x08004668   0x08004668   0x00000128   Code   RO          574    i.HAL_UARTEx_ReceiveToIdle  stm32f1xx_hal_uart.o
    0x08004790   0x08004790   0x00000070   Code   RO          575    i.HAL_UARTEx_ReceiveToIdle_DMA  stm32f1xx_hal_uart.o
    0x08004800   0x08004800   0x00000072   Code   RO          576    i.HAL_UARTEx_ReceiveToIdle_IT  stm32f1xx_hal_uart.o
    0x08004872   0x08004872   0x00000002   Code   RO          577    i.HAL_UARTEx_RxEventCallback  stm32f1xx_hal_uart.o
    0x08004874   0x08004874   0x00000116   Code   RO          578    i.HAL_UART_Abort    stm32f1xx_hal_uart.o
    0x0800498a   0x0800498a   0x00000002   Code   RO          579    i.HAL_UART_AbortCpltCallback  stm32f1xx_hal_uart.o
    0x0800498c   0x0800498c   0x000000c2   Code   RO          580    i.HAL_UART_AbortReceive  stm32f1xx_hal_uart.o
    0x08004a4e   0x08004a4e   0x00000002   Code   RO          581    i.HAL_UART_AbortReceiveCpltCallback  stm32f1xx_hal_uart.o
    0x08004a50   0x08004a50   0x000000d8   Code   RO          582    i.HAL_UART_AbortReceive_IT  stm32f1xx_hal_uart.o
    0x08004b28   0x08004b28   0x0000007c   Code   RO          583    i.HAL_UART_AbortTransmit  stm32f1xx_hal_uart.o
    0x08004ba4   0x08004ba4   0x00000002   Code   RO          584    i.HAL_UART_AbortTransmitCpltCallback  stm32f1xx_hal_uart.o
    0x08004ba6   0x08004ba6   0x00000002   PAD
    0x08004ba8   0x08004ba8   0x00000090   Code   RO          585    i.HAL_UART_AbortTransmit_IT  stm32f1xx_hal_uart.o
    0x08004c38   0x08004c38   0x00000148   Code   RO          586    i.HAL_UART_Abort_IT  stm32f1xx_hal_uart.o
    0x08004d80   0x08004d80   0x000000a6   Code   RO          587    i.HAL_UART_DMAPause  stm32f1xx_hal_uart.o
    0x08004e26   0x08004e26   0x000000aa   Code   RO          588    i.HAL_UART_DMAResume  stm32f1xx_hal_uart.o
    0x08004ed0   0x08004ed0   0x0000008a   Code   RO          589    i.HAL_UART_DMAStop  stm32f1xx_hal_uart.o
    0x08004f5a   0x08004f5a   0x0000003e   Code   RO          590    i.HAL_UART_DeInit   stm32f1xx_hal_uart.o
    0x08004f98   0x08004f98   0x00000002   Code   RO          591    i.HAL_UART_ErrorCallback  stm32f1xx_hal_uart.o
    0x08004f9a   0x08004f9a   0x00000006   Code   RO          592    i.HAL_UART_GetError  stm32f1xx_hal_uart.o
    0x08004fa0   0x08004fa0   0x00000014   Code   RO          593    i.HAL_UART_GetState  stm32f1xx_hal_uart.o
    0x08004fb4   0x08004fb4   0x000002e4   Code   RO          594    i.HAL_UART_IRQHandler  stm32f1xx_hal_uart.o
    0x08005298   0x08005298   0x00000076   Code   RO          595    i.HAL_UART_Init     stm32f1xx_hal_uart.o
    0x0800530e   0x0800530e   0x00000002   PAD
    0x08005310   0x08005310   0x00000030   Code   RO          203    i.HAL_UART_MspDeInit  usart.o
    0x08005340   0x08005340   0x00000002   Code   RO          596    i.HAL_UART_MspDeInit  stm32f1xx_hal_uart.o
    0x08005342   0x08005342   0x00000002   PAD
    0x08005344   0x08005344   0x00000088   Code   RO          204    i.HAL_UART_MspInit  usart.o
    0x080053cc   0x080053cc   0x00000002   Code   RO          597    i.HAL_UART_MspInit  stm32f1xx_hal_uart.o
    0x080053ce   0x080053ce   0x000000c2   Code   RO          598    i.HAL_UART_Receive  stm32f1xx_hal_uart.o
    0x08005490   0x08005490   0x0000002c   Code   RO          599    i.HAL_UART_Receive_DMA  stm32f1xx_hal_uart.o
    0x080054bc   0x080054bc   0x0000002c   Code   RO          600    i.HAL_UART_Receive_IT  stm32f1xx_hal_uart.o
    0x080054e8   0x080054e8   0x00000002   Code   RO          601    i.HAL_UART_RxCpltCallback  stm32f1xx_hal_uart.o
    0x080054ea   0x080054ea   0x00000002   Code   RO          602    i.HAL_UART_RxHalfCpltCallback  stm32f1xx_hal_uart.o
    0x080054ec   0x080054ec   0x000000be   Code   RO          603    i.HAL_UART_Transmit  stm32f1xx_hal_uart.o
    0x080055aa   0x080055aa   0x00000002   PAD
    0x080055ac   0x080055ac   0x0000008c   Code   RO          604    i.HAL_UART_Transmit_DMA  stm32f1xx_hal_uart.o
    0x08005638   0x08005638   0x00000038   Code   RO          605    i.HAL_UART_Transmit_IT  stm32f1xx_hal_uart.o
    0x08005670   0x08005670   0x00000002   Code   RO          606    i.HAL_UART_TxCpltCallback  stm32f1xx_hal_uart.o
    0x08005672   0x08005672   0x00000002   Code   RO          607    i.HAL_UART_TxHalfCpltCallback  stm32f1xx_hal_uart.o
    0x08005674   0x08005674   0x00000004   Code   RO          264    i.HardFault_Handler  stm32f1xx_it.o
    0x08005678   0x08005678   0x00000058   Code   RO          175    i.MX_GPIO_Init      gpio.o
    0x080056d0   0x080056d0   0x00000038   Code   RO          205    i.MX_USART1_UART_Init  usart.o
    0x08005708   0x08005708   0x00000004   Code   RO          265    i.MemManage_Handler  stm32f1xx_it.o
    0x0800570c   0x0800570c   0x00000004   Code   RO          266    i.NMI_Handler       stm32f1xx_it.o
    0x08005710   0x08005710   0x00000006   Code   RO         1722    i.PWR_OverloadWfe   stm32f1xx_hal_pwr.o
    0x08005716   0x08005716   0x00000002   Code   RO          267    i.PendSV_Handler    stm32f1xx_it.o
    0x08005718   0x08005718   0x00000028   Code   RO         1219    i.RCC_Delay         stm32f1xx_hal_rcc.o
    0x08005740   0x08005740   0x00000002   Code   RO          268    i.SVC_Handler       stm32f1xx_it.o
    0x08005742   0x08005742   0x00000008   Code   RO          269    i.SysTick_Handler   stm32f1xx_it.o
    0x0800574a   0x0800574a   0x00000066   Code   RO           17    i.SystemClock_Config  main.o
    0x080057b0   0x080057b0   0x000000a4   Code   RO         2180    i.SystemCoreClockUpdate  system_stm32f1xx.o
    0x08005854   0x08005854   0x00000002   Code   RO         2181    i.SystemInit        system_stm32f1xx.o
    0x08005856   0x08005856   0x00000014   Code   RO          608    i.UART_DMAAbortOnError  stm32f1xx_hal_uart.o
    0x0800586a   0x0800586a   0x00000050   Code   RO          609    i.UART_DMAError     stm32f1xx_hal_uart.o
    0x080058ba   0x080058ba   0x000000b4   Code   RO          610    i.UART_DMAReceiveCplt  stm32f1xx_hal_uart.o
    0x0800596e   0x0800596e   0x00000038   Code   RO          611    i.UART_DMARxAbortCallback  stm32f1xx_hal_uart.o
    0x080059a6   0x080059a6   0x00000024   Code   RO          612    i.UART_DMARxHalfCplt  stm32f1xx_hal_uart.o
    0x080059ca   0x080059ca   0x0000001c   Code   RO          613    i.UART_DMARxOnlyAbortCallback  stm32f1xx_hal_uart.o
    0x080059e6   0x080059e6   0x00000058   Code   RO          614    i.UART_DMATransmitCplt  stm32f1xx_hal_uart.o
    0x08005a3e   0x08005a3e   0x00000038   Code   RO          615    i.UART_DMATxAbortCallback  stm32f1xx_hal_uart.o
    0x08005a76   0x08005a76   0x0000000e   Code   RO          616    i.UART_DMATxHalfCplt  stm32f1xx_hal_uart.o
    0x08005a84   0x08005a84   0x00000018   Code   RO          617    i.UART_DMATxOnlyAbortCallback  stm32f1xx_hal_uart.o
    0x08005a9c   0x08005a9c   0x0000006c   Code   RO          618    i.UART_EndRxTransfer  stm32f1xx_hal_uart.o
    0x08005b08   0x08005b08   0x00000020   Code   RO          619    i.UART_EndTransmit_IT  stm32f1xx_hal_uart.o
    0x08005b28   0x08005b28   0x00000026   Code   RO          620    i.UART_EndTxTransfer  stm32f1xx_hal_uart.o
    0x08005b4e   0x08005b4e   0x000000fc   Code   RO          621    i.UART_Receive_IT   stm32f1xx_hal_uart.o
    0x08005c4a   0x08005c4a   0x00000002   PAD
    0x08005c4c   0x08005c4c   0x000000fc   Code   RO          622    i.UART_SetConfig    stm32f1xx_hal_uart.o
    0x08005d48   0x08005d48   0x000000c8   Code   RO          623    i.UART_Start_Receive_DMA  stm32f1xx_hal_uart.o
    0x08005e10   0x08005e10   0x00000040   Code   RO          624    i.UART_Start_Receive_IT  stm32f1xx_hal_uart.o
    0x08005e50   0x08005e50   0x00000060   Code   RO          625    i.UART_Transmit_IT  stm32f1xx_hal_uart.o
    0x08005eb0   0x08005eb0   0x0000008c   Code   RO          626    i.UART_WaitOnFlagUntilTimeout  stm32f1xx_hal_uart.o
    0x08005f3c   0x08005f3c   0x00000004   Code   RO          270    i.UsageFault_Handler  stm32f1xx_it.o
    0x08005f40   0x08005f40   0x00000020   Code   RO         2436    i.__0printf$8       mc_w.l(printf8.o)
    0x08005f60   0x08005f60   0x00000010   Code   RO         1577    i.__NVIC_GetPriorityGrouping  stm32f1xx_hal_cortex.o
    0x08005f70   0x08005f70   0x00000028   Code   RO         1578    i.__NVIC_SetPriority  stm32f1xx_hal_cortex.o
    0x08005f98   0x08005f98   0x0000000e   Code   RO         2580    i.__scatterload_copy  mc_w.l(handlers.o)
    0x08005fa6   0x08005fa6   0x00000002   Code   RO         2581    i.__scatterload_null  mc_w.l(handlers.o)
    0x08005fa8   0x08005fa8   0x0000000e   Code   RO         2582    i.__scatterload_zeroinit  mc_w.l(handlers.o)
    0x08005fb6   0x08005fb6   0x00000002   PAD
    0x08005fb8   0x08005fb8   0x00000404   Code   RO         2443    i._printf_core      mc_w.l(printf8.o)
    0x080063bc   0x080063bc   0x00000024   Code   RO         2444    i._printf_post_padding  mc_w.l(printf8.o)
    0x080063e0   0x080063e0   0x0000002e   Code   RO         2445    i._printf_pre_padding  mc_w.l(printf8.o)
    0x0800640e   0x0800640e   0x00000002   PAD
    0x08006410   0x08006410   0x00000050   Code   RO          371    i.back_trace        unwind.o
    0x08006460   0x08006460   0x0000000a   Code   RO          372    i.decode_prel31     unwind.o
    0x0800646a   0x0800646a   0x00000002   PAD
    0x0800646c   0x0800646c   0x00000020   Code   RO          206    i.fputc             usart.o
    0x0800648c   0x0800648c   0x00000050   Code   RO         2548    i.free              mc_w.l(malloc.o)
    0x080064dc   0x080064dc   0x00000028   Code   RO           18    i.main              main.o
    0x08006504   0x08006504   0x0000006c   Code   RO         2549    i.malloc            mc_w.l(malloc.o)
    0x08006570   0x08006570   0x0000004c   Code   RO          373    i.search_index      unwind.o
    0x080065bc   0x080065bc   0x000000cc   Code   RO          374    i.show_unwind_info  unwind.o
    0x08006688   0x08006688   0x00000020   Code   RO           19    i.test_a            main.o
    0x080066a8   0x080066a8   0x00000014   Code   RO           20    i.test_b            main.o
    0x080066bc   0x080066bc   0x00000012   Code   RO           21    i.test_c            main.o
    0x080066ce   0x080066ce   0x00000032   Code   RO          375    i.unwind_decode_uleb128  unwind.o
    0x08006700   0x08006700   0x000001f4   Code   RO          376    i.unwind_exec_insn  unwind.o
    0x080068f4   0x080068f4   0x0000004c   Code   RO          377    i.unwind_exec_pop_r4_to_rN  unwind.o
    0x08006940   0x08006940   0x00000036   Code   RO          378    i.unwind_exec_pop_subset_r0_to_r3  unwind.o
    0x08006976   0x08006976   0x0000003c   Code   RO          379    i.unwind_exec_pop_subset_r4_to_r13  unwind.o
    0x080069b2   0x080069b2   0x00000002   PAD
    0x080069b4   0x080069b4   0x00000040   Code   RO          380    i.unwind_find_idx   unwind.o
    0x080069f4   0x080069f4   0x00000026   Code   RO          381    i.unwind_find_origin  unwind.o
    0x08006a1a   0x08006a1a   0x00000002   PAD
    0x08006a1c   0x08006a1c   0x000001b8   Code   RO          382    i.unwind_frame      unwind.o
    0x08006bd4   0x08006bd4   0x00000064   Code   RO          383    i.unwind_get_byte   unwind.o
    0x08006c38   0x08006c38   0x00000030   Code   RO          384    i.unwind_pop_register  unwind.o
    0x08006c68   0x08006c68   0x0000000c   Data   RO         1596    .ARM.extab          stm32f1xx_hal_cortex.o
    0x08006c74   0x08006c74   0x00000011   Data   RO          399    .constdata          unwind.o
    0x08006c85   0x08006c85   0x00000012   Data   RO         1235    .constdata          stm32f1xx_hal_rcc.o
    0x08006c97   0x08006c97   0x00000012   Data   RO         1337    .constdata          stm32f1xx_hal_rcc_ex.o
    0x08006ca9   0x08006ca9   0x00000018   Data   RO         2184    .constdata          system_stm32f1xx.o
    0x08006cc1   0x08006cc1   0x00000003   PAD
    0x08006cc4   0x08006cc4   0x00000042   Data   RO          400    .conststring        unwind.o
    0x08006d06   0x08006d06   0x00000002   PAD
    0x08006d08   0x08006d08   0x00000020   Data   RO         2578    Region$$Table       anon$$obj.o


    Execution Region ER_EXIDX (Exec base: 0x08006d28, Load base: 0x08006d28, Size: 0x00000498, Max: 0x00020000, ABSOLUTE)

    Exec Addr    Load Addr    Size         Type   Attr      Idx    E Section Name        Object

    0x08006d28   0x08006d28   0x00000008   Data   RO           13    .ARM.exidx          main.o
    0x08006d30   0x08006d28   0x00000008   Data   RO         1466    .ARM.exidx          stm32f1xx_hal_dma.o
    0x08006d38   0x08006d28   0x00000008   Data   RO          277    .ARM.exidx          stm32f1xx_it.o
    0x08006d40   0x08006d28   0x00000008   Data   RO         1997    .ARM.exidx          stm32f1xx_hal_flash_ex.o
    0x08006d48   0x08006d28   0x00000008   Data   RO         1992    .ARM.exidx          stm32f1xx_hal_flash_ex.o
    0x08006d50   0x08006d28   0x00000008   Data   RO         1994    .ARM.exidx          stm32f1xx_hal_flash_ex.o
    0x08006d58   0x08006d28   0x00000008   Data   RO         1987    .ARM.exidx          stm32f1xx_hal_flash_ex.o
    0x08006d60   0x08006d28   0x00000008   Data   RO         1866    .ARM.exidx          stm32f1xx_hal_flash.o
    0x08006d68   0x08006d28   0x00000008   Data   RO         1048    .ARM.exidx          stm32f1xx_hal.o
    0x08006d70   0x08006d28   0x00000008   Data   RO         1470    .ARM.exidx          stm32f1xx_hal_dma.o
    0x08006d78   0x08006d28   0x00000008   Data   RO         1465    .ARM.exidx          stm32f1xx_hal_dma.o
    0x08006d80   0x08006d28   0x00000008   Data   RO         1472    .ARM.exidx          stm32f1xx_hal_dma.o
    0x08006d88   0x08006d28   0x00000008   Data   RO         1464    .ARM.exidx          stm32f1xx_hal_dma.o
    0x08006d90   0x08006d28   0x00000008   Data   RO         1471    .ARM.exidx          stm32f1xx_hal_dma.o
    0x08006d98   0x08006d28   0x00000008   Data   RO         1473    .ARM.exidx          stm32f1xx_hal_dma.o
    0x08006da0   0x08006d28   0x00000008   Data   RO         1467    .ARM.exidx          stm32f1xx_hal_dma.o
    0x08006da8   0x08006d28   0x00000008   Data   RO         1474    .ARM.exidx          stm32f1xx_hal_dma.o
    0x08006db0   0x08006d28   0x00000008   Data   RO         1032    .ARM.exidx          stm32f1xx_hal.o
    0x08006db8   0x08006d28   0x00000008   Data   RO         1038    .ARM.exidx          stm32f1xx_hal.o
    0x08006dc0   0x08006d28   0x00000008   Data   RO         2107    .ARM.exidx          stm32f1xx_hal_exti.o
    0x08006dc8   0x08006d28   0x00000008   Data   RO         2112    .ARM.exidx          stm32f1xx_hal_exti.o
    0x08006dd0   0x08006d28   0x00000008   Data   RO         2113    .ARM.exidx          stm32f1xx_hal_exti.o
    0x08006dd8   0x08006d28   0x00000008   Data   RO         2106    .ARM.exidx          stm32f1xx_hal_exti.o
    0x08006de0   0x08006d28   0x00000008   Data   RO         2109    .ARM.exidx          stm32f1xx_hal_exti.o
    0x08006de8   0x08006d28   0x00000008   Data   RO         2111    .ARM.exidx          stm32f1xx_hal_exti.o
    0x08006df0   0x08006d28   0x00000008   Data   RO         2110    .ARM.exidx          stm32f1xx_hal_exti.o
    0x08006df8   0x08006d28   0x00000008   Data   RO         2108    .ARM.exidx          stm32f1xx_hal_exti.o
    0x08006e00   0x08006d28   0x00000008   Data   RO         2105    .ARM.exidx          stm32f1xx_hal_exti.o
    0x08006e08   0x08006d28   0x00000008   Data   RO         1989    .ARM.exidx          stm32f1xx_hal_flash_ex.o
    0x08006e10   0x08006d28   0x00000008   Data   RO         1990    .ARM.exidx          stm32f1xx_hal_flash_ex.o
    0x08006e18   0x08006d28   0x00000008   Data   RO         2001    .ARM.exidx          stm32f1xx_hal_flash_ex.o
    0x08006e20   0x08006d28   0x00000008   Data   RO         2002    .ARM.exidx          stm32f1xx_hal_flash_ex.o
    0x08006e28   0x08006d28   0x00000008   Data   RO         1999    .ARM.exidx          stm32f1xx_hal_flash_ex.o
    0x08006e30   0x08006d28   0x00000008   Data   RO         1870    .ARM.exidx          stm32f1xx_hal_flash.o
    0x08006e38   0x08006d28   0x00000008   Data   RO         1872    .ARM.exidx          stm32f1xx_hal_flash.o
    0x08006e40   0x08006d28   0x00000008   Data   RO         1874    .ARM.exidx          stm32f1xx_hal_flash.o
    0x08006e48   0x08006d28   0x00000008   Data   RO         1877    .ARM.exidx          stm32f1xx_hal_flash.o
    0x08006e50   0x08006d28   0x00000008   Data   RO         1876    .ARM.exidx          stm32f1xx_hal_flash.o
    0x08006e58   0x08006d28   0x00000008   Data   RO         1868    .ARM.exidx          stm32f1xx_hal_flash.o
    0x08006e60   0x08006d28   0x00000008   Data   RO         1869    .ARM.exidx          stm32f1xx_hal_flash.o
    0x08006e68   0x08006d28   0x00000008   Data   RO         1873    .ARM.exidx          stm32f1xx_hal_flash.o
    0x08006e70   0x08006d28   0x00000008   Data   RO         1383    .ARM.exidx          stm32f1xx_hal_gpio.o
    0x08006e78   0x08006d28   0x00000008   Data   RO         1388    .ARM.exidx          stm32f1xx_hal_gpio.o
    0x08006e80   0x08006d28   0x00000008   Data   RO         1389    .ARM.exidx          stm32f1xx_hal_gpio.o
    0x08006e88   0x08006d28   0x00000008   Data   RO         1382    .ARM.exidx          stm32f1xx_hal_gpio.o
    0x08006e90   0x08006d28   0x00000008   Data   RO         1387    .ARM.exidx          stm32f1xx_hal_gpio.o
    0x08006e98   0x08006d28   0x00000008   Data   RO         1384    .ARM.exidx          stm32f1xx_hal_gpio.o
    0x08006ea0   0x08006d28   0x00000008   Data   RO         1386    .ARM.exidx          stm32f1xx_hal_gpio.o
    0x08006ea8   0x08006d28   0x00000008   Data   RO         1385    .ARM.exidx          stm32f1xx_hal_gpio.o
    0x08006eb0   0x08006d28   0x00000008   Data   RO          630    .ARM.exidx          stm32f1xx_hal_uart.o
    0x08006eb8   0x08006d28   0x00000008   Data   RO         1033    .ARM.exidx          stm32f1xx_hal.o
    0x08006ec0   0x08006d28   0x00000008   Data   RO         1030    .ARM.exidx          stm32f1xx_hal.o
    0x08006ec8   0x08006d28   0x00000008   Data   RO         1029    .ARM.exidx          stm32f1xx_hal.o
    0x08006ed0   0x08006d28   0x00000008   Data   RO          682    .ARM.exidx          stm32f1xx_hal_uart.o
    0x08006ed8   0x08006d28   0x00000008   Data   RO          350    .ARM.exidx          stm32f1xx_hal_msp.o
    0x08006ee0   0x08006d28   0x00000008   Data   RO         1028    .ARM.exidx          stm32f1xx_hal.o
    0x08006ee8   0x08006d28   0x00000008   Data   RO          632    .ARM.exidx          stm32f1xx_hal_uart.o
    0x08006ef0   0x08006d28   0x00000008   Data   RO         1590    .ARM.exidx          stm32f1xx_hal_cortex.o
    0x08006ef8   0x08006d28   0x00000008   Data   RO         1582    .ARM.exidx          stm32f1xx_hal_cortex.o
    0x08006f00   0x08006d28   0x00000008   Data   RO         1591    .ARM.exidx          stm32f1xx_hal_cortex.o
    0x08006f08   0x08006d28   0x00000008   Data   RO         1587    .ARM.exidx          stm32f1xx_hal_cortex.o
    0x08006f10   0x08006d28   0x00000008   Data   RO         1586    .ARM.exidx          stm32f1xx_hal_cortex.o
    0x08006f18   0x08006d28   0x00000008   Data   RO         1581    .ARM.exidx          stm32f1xx_hal_cortex.o
    0x08006f20   0x08006d28   0x00000008   Data   RO         1580    .ARM.exidx          stm32f1xx_hal_cortex.o
    0x08006f28   0x08006d28   0x00000008   Data   RO         1733    .ARM.exidx          stm32f1xx_hal_pwr.o
    0x08006f30   0x08006d28   0x00000008   Data   RO         1739    .ARM.exidx          stm32f1xx_hal_pwr.o
    0x08006f38   0x08006d28   0x00000008   Data   RO         1740    .ARM.exidx          stm32f1xx_hal_pwr.o
    0x08006f40   0x08006d28   0x00000008   Data   RO         1335    .ARM.exidx          stm32f1xx_hal_rcc_ex.o
    0x08006f48   0x08006d28   0x00000008   Data   RO         1336    .ARM.exidx          stm32f1xx_hal_rcc_ex.o
    0x08006f50   0x08006d28   0x00000008   Data   RO         1334    .ARM.exidx          stm32f1xx_hal_rcc_ex.o
    0x08006f58   0x08006d28   0x00000008   Data   RO         1233    .ARM.exidx          stm32f1xx_hal_rcc.o
    0x08006f60   0x08006d28   0x00000008   Data   RO         1224    .ARM.exidx          stm32f1xx_hal_rcc.o
    0x08006f68   0x08006d28   0x00000008   Data   RO         1220    .ARM.exidx          stm32f1xx_hal_rcc.o
    0x08006f70   0x08006d28   0x00000008   Data   RO         1227    .ARM.exidx          stm32f1xx_hal_rcc.o
    0x08006f78   0x08006d28   0x00000008   Data   RO         1229    .ARM.exidx          stm32f1xx_hal_rcc.o
    0x08006f80   0x08006d28   0x00000008   Data   RO         1223    .ARM.exidx          stm32f1xx_hal_rcc.o
    0x08006f88   0x08006d28   0x00000008   Data   RO         1225    .ARM.exidx          stm32f1xx_hal_rcc.o
    0x08006f90   0x08006d28   0x00000008   Data   RO         1234    .ARM.exidx          stm32f1xx_hal_rcc.o
    0x08006f98   0x08006d28   0x00000008   Data   RO         1222    .ARM.exidx          stm32f1xx_hal_rcc.o
    0x08006fa0   0x08006d28   0x00000008   Data   RO         1040    .ARM.exidx          stm32f1xx_hal.o
    0x08006fa8   0x08006d28   0x00000008   Data   RO         1585    .ARM.exidx          stm32f1xx_hal_cortex.o
    0x08006fb0   0x08006d28   0x00000008   Data   RO         1594    .ARM.exidx          stm32f1xx_hal_cortex.o
    0x08006fb8   0x08006d28   0x00000008   Data   RO         1036    .ARM.exidx          stm32f1xx_hal.o
    0x08006fc0   0x08006d28   0x00000008   Data   RO         1039    .ARM.exidx          stm32f1xx_hal.o
    0x08006fc8   0x08006d28   0x00000008   Data   RO          660    .ARM.exidx          stm32f1xx_hal_uart.o
    0x08006fd0   0x08006d28   0x00000008   Data   RO          662    .ARM.exidx          stm32f1xx_hal_uart.o
    0x08006fd8   0x08006d28   0x00000008   Data   RO          651    .ARM.exidx          stm32f1xx_hal_uart.o
    0x08006fe0   0x08006d28   0x00000008   Data   RO          664    .ARM.exidx          stm32f1xx_hal_uart.o
    0x08006fe8   0x08006d28   0x00000008   Data   RO          667    .ARM.exidx          stm32f1xx_hal_uart.o
    0x08006ff0   0x08006d28   0x00000008   Data   RO          666    .ARM.exidx          stm32f1xx_hal_uart.o
    0x08006ff8   0x08006d28   0x00000008   Data   RO          674    .ARM.exidx          stm32f1xx_hal_uart.o
    0x08007000   0x08006d28   0x00000008   Data   RO          676    .ARM.exidx          stm32f1xx_hal_uart.o
    0x08007008   0x08006d28   0x00000008   Data   RO          671    .ARM.exidx          stm32f1xx_hal_uart.o
    0x08007010   0x08006d28   0x00000008   Data   RO          673    .ARM.exidx          stm32f1xx_hal_uart.o
    0x08007018   0x08006d28   0x00000008   Data   RO          670    .ARM.exidx          stm32f1xx_hal_uart.o
    0x08007020   0x08006d28   0x00000008   Data   RO          657    .ARM.exidx          stm32f1xx_hal_uart.o
    0x08007028   0x08006d28   0x00000008   Data   RO          658    .ARM.exidx          stm32f1xx_hal_uart.o
    0x08007030   0x08006d28   0x00000008   Data   RO          659    .ARM.exidx          stm32f1xx_hal_uart.o
    0x08007038   0x08006d28   0x00000008   Data   RO          634    .ARM.exidx          stm32f1xx_hal_uart.o
    0x08007040   0x08006d28   0x00000008   Data   RO          642    .ARM.exidx          stm32f1xx_hal_uart.o
    0x08007048   0x08006d28   0x00000008   Data   RO          681    .ARM.exidx          stm32f1xx_hal_uart.o
    0x08007050   0x08006d28   0x00000008   Data   RO          629    .ARM.exidx          stm32f1xx_hal_uart.o
    0x08007058   0x08006d28   0x00000008   Data   RO          633    .ARM.exidx          stm32f1xx_hal_uart.o
    0x08007060   0x08006d28   0x00000008   Data   RO          208    .ARM.exidx          usart.o
    0x08007068   0x08006d28   0x00000008   Data   RO          628    .ARM.exidx          stm32f1xx_hal_uart.o
    0x08007070   0x08006d28   0x00000008   Data   RO          638    .ARM.exidx          stm32f1xx_hal_uart.o
    0x08007078   0x08006d28   0x00000008   Data   RO          656    .ARM.exidx          stm32f1xx_hal_uart.o
    0x08007080   0x08006d28   0x00000008   Data   RO          653    .ARM.exidx          stm32f1xx_hal_uart.o
    0x08007088   0x08006d28   0x00000008   Data   RO          637    .ARM.exidx          stm32f1xx_hal_uart.o
    0x08007090   0x08006d28   0x00000008   Data   RO          649    .ARM.exidx          stm32f1xx_hal_uart.o
    0x08007098   0x08006d28   0x00000008   Data   RO          639    .ARM.exidx          stm32f1xx_hal_uart.o
    0x080070a0   0x08006d28   0x00000008   Data   RO          647    .ARM.exidx          stm32f1xx_hal_uart.o
    0x080070a8   0x08006d28   0x00000008   Data   RO          176    .ARM.exidx          gpio.o
    0x080070b0   0x08006d28   0x00000008   Data   RO          207    .ARM.exidx          usart.o
    0x080070b8   0x08006d28   0x00000008   Data   RO          273    .ARM.exidx          stm32f1xx_it.o
    0x080070c0   0x08006d28   0x00000008   Data   RO         1221    .ARM.exidx          stm32f1xx_hal_rcc.o
    0x080070c8   0x08006d28   0x00000008   Data   RO          276    .ARM.exidx          stm32f1xx_it.o
    0x080070d0   0x08006d28   0x00000008   Data   RO          279    .ARM.exidx          stm32f1xx_it.o
    0x080070d8   0x08006d28   0x00000008   Data   RO           26    .ARM.exidx          main.o
    0x080070e0   0x08006d28   0x00000008   Data   RO         2183    .ARM.exidx          system_stm32f1xx.o
    0x080070e8   0x08006d28   0x00000008   Data   RO         2182    .ARM.exidx          system_stm32f1xx.o
    0x080070f0   0x08006d28   0x00000008   Data   RO          679    .ARM.exidx          stm32f1xx_hal_uart.o
    0x080070f8   0x08006d28   0x00000008   Data   RO          635    .ARM.exidx          stm32f1xx_hal_uart.o
    0x08007100   0x08006d28   0x00000008   Data   RO          677    .ARM.exidx          stm32f1xx_hal_uart.o
    0x08007108   0x08006d28   0x00000008   Data   RO          643    .ARM.exidx          stm32f1xx_hal_uart.o
    0x08007110   0x08006d28   0x00000008   Data   RO          680    .ARM.exidx          stm32f1xx_hal_uart.o
    0x08007118   0x08006d28   0x00000008   Data   RO          627    .ARM.exidx          stm32f1xx_hal_uart.o
    0x08007120   0x08006d28   0x00000008   Data   RO          655    .ARM.exidx          stm32f1xx_hal_uart.o
    0x08007128   0x08006d28   0x00000008   Data   RO          640    .ARM.exidx          stm32f1xx_hal_uart.o
    0x08007130   0x08006d28   0x00000008   Data   RO          678    .ARM.exidx          stm32f1xx_hal_uart.o
    0x08007138   0x08006d28   0x00000008   Data   RO          636    .ARM.exidx          stm32f1xx_hal_uart.o
    0x08007140   0x08006d28   0x00000008   Data   RO          275    .ARM.exidx          stm32f1xx_it.o
    0x08007148   0x08006d28   0x00000008   Data   RO         1579    .ARM.exidx          stm32f1xx_hal_cortex.o
    0x08007150   0x08006d28   0x00000008   Data   RO          397    .ARM.exidx          unwind.o
    0x08007158   0x08006d28   0x00000008   Data   RO          385    .ARM.exidx          unwind.o
    0x08007160   0x08006d28   0x00000008   Data   RO          210    .ARM.exidx          usart.o
    0x08007168   0x08006d28   0x00000008   Data   RO           27    .ARM.exidx          main.o
    0x08007170   0x08006d28   0x00000008   Data   RO          387    .ARM.exidx          unwind.o
    0x08007178   0x08006d28   0x00000008   Data   RO          398    .ARM.exidx          unwind.o
    0x08007180   0x08006d28   0x00000008   Data   RO           23    .ARM.exidx          main.o
    0x08007188   0x08006d28   0x00000008   Data   RO          394    .ARM.exidx          unwind.o
    0x08007190   0x08006d28   0x00000008   Data   RO          395    .ARM.exidx          unwind.o
    0x08007198   0x08006d28   0x00000008   Data   RO          388    .ARM.exidx          unwind.o
    0x080071a0   0x08006d28   0x00000008   Data   RO          386    .ARM.exidx          unwind.o
    0x080071a8   0x08006d28   0x00000008   Data   RO          396    .ARM.exidx          unwind.o
    0x080071b0   0x08006d28   0x00000008   Data   RO          389    .ARM.exidx          unwind.o
    0x080071b8   0x08006d28   0x00000008   Data   RO          390    .ARM.exidx          unwind.o


    Execution Region RW_IRAM1 (Exec base: 0x20000000, Load base: 0x080071c0, Size: 0x00000690, Max: 0x0000c000, ABSOLUTE)

    Exec Addr    Load Addr    Size         Type   Attr      Idx    E Section Name        Object

    0x20000000   0x080071c0   0x0000000c   Data   RW          401    .data               unwind.o
    0x2000000c   0x080071cc   0x00000009   Data   RW         1053    .data               stm32f1xx_hal.o
    0x20000015   0x080071d5   0x00000003   PAD
    0x20000018   0x080071d8   0x00000004   Data   RW         2185    .data               system_stm32f1xx.o
    0x2000001c   0x080071dc   0x00000004   Data   RW         2509    .data               mc_w.l(stdout.o)
    0x20000020   0x080071e0   0x00000004   Data   RW         2576    .data               mc_w.l(mvars.o)
    0x20000024   0x080071e4   0x00000004   Data   RW         2577    .data               mc_w.l(mvars.o)
    0x20000028        -       0x00000048   Zero   RW          211    .bss                usart.o
    0x20000070        -       0x00000020   Zero   RW         1879    .bss                stm32f1xx_hal_flash.o
    0x20000090        -       0x00000200   Zero   RW            2    HEAP                startup_stm32f103xe.o
    0x20000290        -       0x00000400   Zero   RW            1    STACK               startup_stm32f103xe.o


==============================================================================

Image component sizes


      Code (inc. data)   RO Data    RW Data    ZI Data      Debug   Object Name

       102          4          8          0          0       1919   gpio.o
       232          0         32          0          0     471331   main.o
        36          8        304          0       1536        768   startup_stm32f103xe.o
       546        130         80          9          0      17113   stm32f1xx_hal.o
       828         66         92          0          0      37950   stm32f1xx_hal_cortex.o
      3868         60         72          0          0      12099   stm32f1xx_hal_dma.o
       696         46         72          0          0       7945   stm32f1xx_hal_exti.o
      1098         90         72          0         32       9723   stm32f1xx_hal_flash.o
      1522        142         72          0          0      11854   stm32f1xx_hal_flash_ex.o
      1310         76         64          0          0       7757   stm32f1xx_hal_gpio.o
        78         16          0          0          0       2777   stm32f1xx_hal_gpio_ex.o
        98          8          8          0          0       2070   stm32f1xx_hal_msp.o
       602         92         24          0          0      11415   stm32f1xx_hal_pwr.o
      2460        152         98          0          0      11637   stm32f1xx_hal_rcc.o
       682         40         42          0          0       4220   stm32f1xx_hal_rcc_ex.o
        14          0          0          0          0       1172   stm32f1xx_hal_tim.o
        14          0          0          0          0       1188   stm32f1xx_hal_tim_ex.o
      6506         52        320          0          0      45256   stm32f1xx_hal_uart.o
        48          0         40          0          0       4706   stm32f1xx_it.o
       180         22         40          4          0       2831   system_stm32f1xx.o
      1800        484        171         12          0      10185   unwind.o
       286         42         24          0         72       5027   usart.o

    ----------------------------------------------------------------------
     23084       1530       1672         28       1640     680943   Object Totals
         0          0         32          0          0          0   (incl. Generated)
        78          0          5          3          0          0   (incl. Padding)

    ----------------------------------------------------------------------

      Code (inc. data)   RO Data    RW Data    ZI Data      Debug   Library Member Name

         4          0          0          0          0         68   unwind_activity.o
         6          0          0          0          0         68   unwind_pr0.o
         6          0          0          0          0         68   unwind_pr1.o
      1524          4          0          0          0        116   unwind_prcommon.o
      1096         34          0          0          0        484   unwinder.o
        70          0          0          0          0         92   bsearch.o
         0          0          0          0          0          0   entry.o
         0          0          0          0          0          0   entry10a.o
         0          0          0          0          0          0   entry11a.o
         4          0          0          0          0          0   entry12b.o
         8          4          0          0          0          0   entry2.o
         4          0          0          0          0          0   entry5.o
         0          0          0          0          0          0   entry7b.o
         0          0          0          0          0          0   entry8b.o
         8          4          0          0          0          0   entry9a.o
        30          0          0          0          0          0   handlers.o
        36          8          0          0          0         68   init.o
        30          0          0          0          0         68   llshl.o
        32          0          0          0          0         68   llushr.o
       188         20          0          0          0        160   malloc.o
        36          0          0          0          0         68   memcpya.o
        36          0          0          0          0        108   memseta.o
         0          0          0          8          0          0   mvars.o
      1142         54          0          0          0        352   printf8.o
         0          0          0          4          0          0   stdout.o
        98          0          0          0          0         92   uldiv.o

    ----------------------------------------------------------------------
      4364        128          0         12          0       1880   Library Totals
         6          0          0          0          0          0   (incl. Padding)

    ----------------------------------------------------------------------

      Code (inc. data)   RO Data    RW Data    ZI Data      Debug   Library Name

      2636         38          0          0          0        804   cpprt_w.l
      1722         90          0         12          0       1076   mc_w.l

    ----------------------------------------------------------------------
      4364        128          0         12          0       1880   Library Totals

    ----------------------------------------------------------------------

==============================================================================


      Code (inc. data)   RO Data    RW Data    ZI Data      Debug   

     27448       1658       1672         40       1640     666803   Grand Totals
     27448       1658       1672         40       1640     666803   ELF Image Totals
     27448       1658       1672         40          0          0   ROM Totals

==============================================================================

    Total RO  Size (Code + RO Data)                29120 (  28.44kB)
    Total RW  Size (RW Data + ZI Data)              1680 (   1.64kB)
    Total ROM Size (Code + RO Data + RW Data)      29160 (  28.48kB)

==============================================================================

